ARM Linker, 5.03 [Build 76] [MDK-ARM Professional]

==============================================================================

Section Cross References

    startup_stm32f429x.o(RESET) refers to startup_stm32f429x.o(STACK) for __initial_sp
    startup_stm32f429x.o(RESET) refers to startup_stm32f429x.o(.text) for Reset_Handler
    startup_stm32f429x.o(RESET) refers to stm32f4xx_it.o(.text) for NMI_Handler
    startup_stm32f429x.o(.text) refers to system_stm32f4xx.o(.text) for SystemInit
    startup_stm32f429x.o(.text) refers to entry.o(.ARM.Collect$$$$00000000) for __main
    system_stm32f4xx.o(.text) refers to system_stm32f4xx.o(.data) for SystemCoreClock
    main.o(.text) refers to stm32f4xx_hal_uart.o(.text) for HAL_UART_Transmit
    main.o(.text) refers to stm32f4xx_hal_gpio.o(.text) for HAL_GPIO_ReadPin
    main.o(.text) refers to veth_system_clock.o(.text) for SystemClock_Config
    main.o(.text) refers to veth_hal_init.o(.text) for RCC_Configuration
    main.o(.text) refers to printfa.o(i.__0printf) for __2printf
    main.o(.text) refers to veth_invariate.o(.text) for Init_InVariate
    main.o(.text) refers to veth_m_4pse.o(.text) for poeDemo
    main.o(.text) refers to veth_serial.o(.text) for testSerial
    main.o(.text) refers to stm32f4xx_hal_iwdg.o(.text) for HAL_IWDG_Init
    main.o(.text) refers to strcmp.o(.text) for strcmp
    main.o(.text) refers to board_info.o(.text) for initBoardInfo
    main.o(.text) refers to veth_rstp.o(.text) for configRSTP
    main.o(.text) refers to veth_marvell_6097f.o(.text) for Set_Switch_Port_state
    main.o(.text) refers to web_main.o(.text) for web_main
    main.o(.text) refers to veth_hal_init.o(.bss) for Uart1Handle
    main.o(.text) refers to web_main.o(.data) for board
    main.o(.text) refers to main.o(.bss) for Eth_Handle
    main.o(.text) refers to veth_hal_init.o(.data) for sCount
    main.o(.text) refers to main.o(.data) for g_reset_time
    main.o(.data) refers to main.o(.conststring) for .conststring
    veth_com_usart.o(.text) refers to stm32f4xx_hal_uart.o(.text) for Set_comd
    veth_com_usart.o(.text) refers to printfa.o(i.__0printf) for __2printf
    veth_com_usart.o(.text) refers to main.o(.text) for Blink_LED_RUN
    veth_com_usart.o(.text) refers to strncmp.o(.text) for strncmp
    veth_com_usart.o(.text) refers to veth_invariate.o(.text) for InVariate_Default
    veth_com_usart.o(.text) refers to veth_hal_init.o(.bss) for COM6_RX_buffer
    veth_com_usart.o(.text) refers to veth_com_usart.o(.constdata) for .constdata
    veth_com_usart.o(.text) refers to veth_com_usart.o(.data) for SYS_RESTART
    veth_com_usart.o(.text) refers to stm32f4xx_hal_uart.o(.bss) for Command
    veth_com_usart.o(.text) refers to veth_hal_init.o(.text) for Modify_the_MAC
    veth_com_usart.o(.text) refers to strncpy.o(.text) for strncpy
    veth_com_usart.o(.text) refers to strlen.o(.text) for strlen
    veth_com_usart.o(.text) refers to web_main.o(.data) for board
    veth_com_usart.o(.text) refers to veth_com_usart.o(.bss) for username
    veth_com_usart.o(.text) refers to veth_hal_init.o(.data) for read_com6
    veth_com_usart.o(.data) refers to veth_com_usart.o(.conststring) for .conststring
    veth_eth_ap.o(.text) refers to stm32f4xx_hal_eth.o(.text) for HAL_ETH_TransmitFrame
    veth_eth_ap.o(.text) refers to memcpya.o(.text) for __aeabi_memcpy4
    veth_eth_ap.o(.text) refers to printfa.o(i.__0printf) for __2printf
    veth_eth_ap.o(.text) refers to main.o(.bss) for Eth_Handle
    veth_eth_ap.o(.text) refers to veth_hal_init.o(.data) for msCount
    veth_hal_init.o(.text) refers to stm32f4xx_hal_cortex.o(.text) for HAL_NVIC_SetPriorityGrouping
    veth_hal_init.o(.text) refers to stm32f4xx_hal_gpio.o(.text) for HAL_GPIO_Init
    veth_hal_init.o(.text) refers to memcpya.o(.text) for __aeabi_memcpy4
    veth_hal_init.o(.text) refers to stm32f4xx_hal_uart.o(.text) for HAL_UART_Init
    veth_hal_init.o(.text) refers to stm32f4xx_hal_rcc.o(.text) for HAL_RCC_GetHCLKFreq
    veth_hal_init.o(.text) refers to stm32f4xx_hal_tim.o(.text) for HAL_TIM_Base_Init
    veth_hal_init.o(.text) refers to stm32f4xx_hal_eth.o(.text) for HAL_ETH_Init
    veth_hal_init.o(.text) refers to veth_marvell_6097f.o(.text) for Set_Switch_Port_state
    veth_hal_init.o(.text) refers to veth_hal_init.o(.bss) for TimHandle
    veth_hal_init.o(.text) refers to veth_hal_init.o(.data) for sCount
    veth_hal_init.o(.text) refers to veth_hal_init.o(EXTSDRAM) for TX_BUFFER
    veth_hal_init.o(.text) refers to main.o(.bss) for Eth_Handle
    veth_hal_init.o(.text) refers to stm32f4xx_hal_i2c.o(.text) for HAL_I2C_Init
    veth_hal_init.o(.text) refers to printfa.o(i.__0printf) for __2printf
    veth_hal_init.o(.text) refers to stm32f4xx_hal_sdram.o(.text) for HAL_SDRAM_SendCommand
    veth_hal_init.o(.text) refers to stm32f4xx_hal.o(.text) for HAL_Delay
    veth_hal_init.o(.text) refers to stm32f4xx_hal_nor.o(.text) for HAL_NOR_Init
    veth_hal_init.o(.text) refers to veth_eth_ap.o(.bss) for bpdu_count
    veth_hal_init.o(.text) refers to veth_invariate.o(.text) for updateNewConfig
    veth_invariate.o(.text) refers to stm32f4xx_hal_flash.o(.text) for HAL_FLASH_Unlock
    veth_invariate.o(.text) refers to printfa.o(i.__0printf) for __2printf
    veth_invariate.o(.text) refers to stm32f4xx_hal_flash_ex.o(.text) for HAL_FLASHEx_Erase
    veth_invariate.o(.text) refers to main.o(.text) for WatchDogTimerReset
    veth_invariate.o(.text) refers to memcpya.o(.text) for __aeabi_memcpy
    veth_invariate.o(.text) refers to memseta.o(.text) for __aeabi_memclr4
    veth_invariate.o(.text) refers to board_info.o(.text) for calculateChecksum
    veth_invariate.o(.text) refers to veth_invariate.o(.bss) for EraseInitStruct
    veth_invariate.o(.text) refers to veth_invariate.o(.data) for SectorError
    veth_invariate.o(.text) refers to veth_hal_init.o(.data) for SET_INFO
    veth_invariate.o(.text) refers to web_main.o(.bss) for board_temp
    veth_invariate.o(.text) refers to web_main.o(.data) for board
    veth_invariate.o(.text) refers to stm32f4xx_hal_uart.o(.bss) for Command
    veth_invariate.o(.text) refers to strlen.o(.text) for strlen
    veth_invariate.o(.text) refers to strncpy.o(.text) for strncpy
    veth_invariate.o(.text) refers to veth_marvell_6097f.o(.text) for Str_cmp
    veth_invariate.o(.data) refers to veth_invariate.o(.conststring) for .conststring
    veth_m_4pse.o(.text) refers to stm32f4xx_hal_i2c.o(.text) for HAL_I2C_Mem_Read
    veth_m_4pse.o(.text) refers to veth_hal_init.o(.bss) for I2C1Handle
    veth_marvell_6097f.o(.text) refers to printfa.o(i.__0printf) for __2printf
    veth_marvell_6097f.o(.text) refers to stm32f4xx_hal_eth.o(.text) for HAL_ETH_ReadPHYRegister
    veth_marvell_6097f.o(.text) refers to main.o(.text) for Delay
    veth_marvell_6097f.o(.text) refers to veth_marvell_6097f.o(.data) for trunk_vector
    veth_marvell_6097f.o(.text) refers to main.o(.bss) for Eth_Handle
    veth_marvell_6097f.o(.text) refers to veth_hal_init.o(.text) for cancleForceLink
    veth_sdram.o(.text) refers to printfa.o(i.__0printf) for __2printf
    veth_sdram.o(.text) refers to veth_sdram.o(.data) for uwIndex
    veth_sdram.o(.text) refers to veth_sdram.o(.bss) for Tem2
    veth_sdram.o(.text) refers to veth_hal_init.o(.bss) for SDRAM_Timing
    veth_system_clock.o(.text) refers to stm32f4xx_hal_rcc.o(.text) for HAL_RCC_OscConfig
    veth_system_clock.o(.text) refers to stm32f4xx_hal_cortex.o(.text) for HAL_SYSTICK_CLKSourceConfig
    stm32f4xx_it.o(.text) refers to stm32f4xx_hal.o(.text) for HAL_IncTick
    stm32f4xx_it.o(.text) refers to stm32f4xx_hal_tim.o(.text) for HAL_TIM_IRQHandler
    stm32f4xx_it.o(.text) refers to stm32f4xx_hal_uart.o(.text) for HAL_UART_IRQHandler
    stm32f4xx_it.o(.text) refers to stm32f4xx_hal_i2c.o(.text) for HAL_I2C_EV_IRQHandler
    stm32f4xx_it.o(.text) refers to stm32f4xx_hal_dma.o(.text) for HAL_DMA_Rx_IRQHandler
    stm32f4xx_it.o(.text) refers to veth_hal_init.o(.bss) for TimHandle
    veth_rstp.o(.text) refers to printfa.o(i.__0printf) for __2printf
    veth_rstp.o(.text) refers to stp_in.o(.text) for STP_IN_init
    veth_rstp.o(.text) refers to stp_to.o(.text) for STP_OUT_get_port_link_status
    veth_rstp.o(.text) refers to veth_hal_init.o(.text) for RSTP_Init
    veth_rstp.o(.text) refers to veth_marvell_6097f.o(.text) for Flush_Move_ATUentry
    veth_rstp.o(.text) refers to stm32f4xx_hal_eth.o(.text) for HAL_ETH_Start
    veth_rstp.o(.text) refers to memcpya.o(.text) for __aeabi_memcpy
    veth_rstp.o(.text) refers to memseta.o(.text) for __aeabi_memclr
    veth_rstp.o(.text) refers to veth_rstp.o(.data) for enabled_ports
    veth_rstp.o(.text) refers to main.o(.bss) for Eth_Handle
    veth_rstp.o(.text) refers to veth_hal_init.o(.data) for sCount
    veth_rstp.o(.text) refers to veth_rstp.o(.bss) for bpdu
    veth_rstp.o(.text) refers to veth_eth_ap.o(.bss) for bpdu_count
    veth_serial.o(.text) refers to stm32f4xx_hal_gpio.o(.text) for HAL_GPIO_WritePin
    veth_serial.o(.text) refers to veth_hal_init.o(.data) for sCount
    veth_serial.o(.text) refers to fifo.o(.text) for CheckCanReadNum
    veth_serial.o(.text) refers to printfa.o(i.__0printf) for __2printf
    veth_serial.o(.text) refers to stm32f4xx_hal_dma.o(.text) for HAL_DMA_Start_IT
    veth_serial.o(.text) refers to veth_serial.o(.data) for the_int_wait
    veth_serial.o(.text) refers to web_main.o(.data) for board
    veth_serial.o(.text) refers to stm32f4xx_hal_dma_ex.o(.text) for HAL_DMAEx_MultiBufferStart_IT
    veth_serial.o(.text) refers to memcpya.o(.text) for __aeabi_memcpy
    veth_serial.o(.text) refers to serialutility.o(.text) for getServerSerialData
    veth_serial.o(.text) refers to malloc.o(i.free) for free
    veth_serial.o(.text) refers to memseta.o(.text) for __aeabi_memclr
    veth_serial.o(.text) refers to serialutility.o(.bss) for serial_server_queue_total
    veth_serial.o(.text) refers to veth_hal_init.o(.bss) for Uart6Handle
    veth_serial.o(.text) refers to veth_serial.o(.bss) for hdma_tx
    veth_serial.o(.text) refers to veth_serial.o(COMDATABUFFER) for com4dataBuffer1
    veth_serial.o(.data) refers to veth_serial.o(.conststring) for .conststring
    fifo.o(.text) refers to malloc.o(i.malloc) for malloc
    fifo.o(.text) refers to malloc.o(i.free) for free
    edge.o(.text) refers to statmch.o(.text) for STP_hop_2_state
    edge.o(.text) refers to edge.o(.data) for state_names
    edge.o(.data) refers to edge.o(.conststring) for .conststring
    migrate.o(.text) refers to statmch.o(.text) for STP_hop_2_state
    migrate.o(.text) refers to migrate.o(.data) for state_names
    migrate.o(.data) refers to migrate.o(.conststring) for .conststring
    p2p.o(.text) refers to stp_to.o(.text) for STP_OUT_get_duplex
    p2p.o(.text) refers to statmch.o(.text) for STP_hop_2_state
    p2p.o(.text) refers to p2p.o(.data) for state_names
    p2p.o(.data) refers to p2p.o(.conststring) for .conststring
    pcost.o(.text) refers to stp_to.o(.text) for STP_OUT_get_port_oper_speed
    pcost.o(.text) refers to statmch.o(.text) for STP_hop_2_state
    pcost.o(.text) refers to pcost.o(.data) for state_names
    pcost.o(.data) refers to pcost.o(.conststring) for .conststring
    port.o(.text) refers to calloc.o(.text) for calloc
    port.o(.text) refers to printfa.o(i.__0printf) for __2printf
    port.o(.text) refers to stp_to.o(.text) for STP_OUT_get_init_port_cfg
    port.o(.text) refers to statmch.o(.text) for STP_state_mach_create
    port.o(.text) refers to vector.o(.text) for STP_VECT_create
    port.o(.text) refers to times.o(.text) for STP_copy_times
    port.o(.text) refers to malloc.o(i.free) for free
    port.o(.text) refers to portinfo.o(.text) for STP_info_rx_bpdu
    port.o(.text) refers to topoch.o(.text) for STP_topoch_get_state_name
    port.o(.text) refers to migrate.o(.text) for STP_migrate_get_state_name
    port.o(.text) refers to p2p.o(.text) for STP_p2p_get_state_name
    port.o(.text) refers to edge.o(.text) for STP_edge_get_state_name
    port.o(.text) refers to pcost.o(.text) for STP_pcost_get_state_name
    port.o(.text) refers to roletrns.o(.text) for STP_roletrns_get_state_name
    port.o(.text) refers to sttrans.o(.text) for STP_sttrans_get_state_name
    port.o(.text) refers to transmit.o(.text) for STP_transmit_get_state_name
    portinfo.o(.text) refers to vector.o(.text) for STP_VECT_compare_vector
    portinfo.o(.text) refers to times.o(.text) for STP_compare_times
    portinfo.o(.text) refers to portinfo.o(.data) for state_names
    portinfo.o(.text) refers to statmch.o(.text) for STP_hop_2_state
    portinfo.o(.data) refers to portinfo.o(.conststring) for .conststring
    rolesel.o(.text) refers to vector.o(.text) for STP_VECT_compare_bridge_id
    rolesel.o(.text) refers to times.o(.text) for STP_copy_times
    rolesel.o(.text) refers to statmch.o(.text) for STP_hop_2_state
    rolesel.o(.text) refers to rolesel.o(.data) for state_names
    rolesel.o(.data) refers to rolesel.o(.conststring) for .conststring
    roletrns.o(.text) refers to statmch.o(.text) for STP_hop_2_state
    roletrns.o(.text) refers to roletrns.o(.data) for state_names
    roletrns.o(.data) refers to roletrns.o(.conststring) for .conststring
    statmch.o(.text) refers to calloc.o(.text) for calloc
    statmch.o(.text) refers to printfa.o(i.__0printf) for __2printf
    statmch.o(.text) refers to malloc.o(i.free) for free
    stp_in.o(.text) refers to stpm.o(.text) for STP_stpm_get_the_list
    stp_in.o(.text) refers to port.o(.text) for STP_port_create
    stp_in.o(.text) refers to stp_to.o(.text) for STP_OUT_set_hardware_mode
    stp_in.o(.text) refers to stp_in.o(.data) for max_port
    stp_in.o(.text) refers to strncpy.o(.text) for strncpy
    stp_in.o(.text) refers to memseta.o(.text) for __aeabi_memclr
    stp_in.o(.text) refers to def.o(.text) for lwip_ntohs
    stp_in.o(.text) refers to printfa.o(i.__0printf) for __2printf
    stp_in.o(.text) refers to strcmp.o(.text) for strcmp
    stp_in.o(.data) refers to stp_in.o(.conststring) for .conststring
    stp_to.o(.text) refers to veth_marvell_6097f.o(.text) for Set_Switch_Port_state
    stp_to.o(.text) refers to veth_eth_ap.o(.text) for ETH_TX_PACKET
    stp_to.o(.text) refers to printfa.o(i.__0sprintf) for __2sprintf
    stp_to.o(.text) refers to web_main.o(.data) for board
    stp_to.o(.text) refers to main.o(.bss) for Eth_Handle
    stp_to.o(.text) refers to stp_to.o(.data) for tmp
    stp_to.o(.data) refers to stp_to.o(.conststring) for .conststring
    stpm.o(.text) refers to vector.o(.text) for STP_VECT_create
    stpm.o(.text) refers to times.o(.text) for STP_copy_times
    stpm.o(.text) refers to printfa.o(i.__0printf) for __2printf
    stpm.o(.text) refers to calloc.o(.text) for calloc
    stpm.o(.text) refers to statmch.o(.text) for STP_state_mach_create
    stpm.o(.text) refers to stp_to.o(.text) for STP_OUT_get_port_mac
    stpm.o(.text) refers to port.o(.text) for STP_port_init
    stpm.o(.text) refers to malloc.o(i.free) for free
    stpm.o(.text) refers to stpm.o(.data) for bridges
    stpm.o(.text) refers to rolesel.o(.text) for STP_rolesel_get_state_name
    sttrans.o(.text) refers to stp_to.o(.text) for STP_OUT_set_port_state
    sttrans.o(.text) refers to statmch.o(.text) for STP_hop_2_state
    sttrans.o(.text) refers to sttrans.o(.data) for state_names
    sttrans.o(.data) refers to sttrans.o(.conststring) for .conststring
    times.o(.text) refers to veth_ntoh.o(.text) for ntrhs
    topoch.o(.text) refers to stp_to.o(.text) for STP_OUT_flush_lt
    topoch.o(.text) refers to statmch.o(.text) for STP_hop_2_state
    topoch.o(.text) refers to topoch.o(.data) for state_names
    topoch.o(.data) refers to topoch.o(.conststring) for .conststring
    transmit.o(.text) refers to stp_to.o(.text) for STP_OUT_get_port_mac
    transmit.o(.text) refers to veth_ntoh.o(.text) for htrns
    transmit.o(.text) refers to vector.o(.text) for STP_VECT_set_vector
    transmit.o(.text) refers to times.o(.text) for STP_set_times
    transmit.o(.text) refers to statmch.o(.text) for STP_hop_2_state
    transmit.o(.text) refers to printfa.o(i.__0printf) for __2printf
    transmit.o(.text) refers to transmit.o(.data) for state_names
    transmit.o(.data) refers to transmit.o(.conststring) for .conststring
    vector.o(.text) refers to memcmp.o(.text) for memcmp
    vector.o(.text) refers to memcpya.o(.text) for __aeabi_memcpy4
    vector.o(.text) refers to veth_ntoh.o(.text) for ntrhs
    veth_netupgrade.o(.text) refers to veth_marvell_6097f.o(.text) for Str_cpy
    veth_netupgrade.o(.text) refers to veth_invariate.o(.text) for getNetworkUpgradeTarg
    veth_netupgrade.o(.text) refers to veth_netupgrade.o(.data) for tem_bin
    veth_mac.o(.text) refers to veth_marvell_6097f.o(.text) for set_aging_time
    veth_mac.o(.text) refers to veth_vlan.o(.text) for setVlanMember
    veth_mac.o(.text) refers to printfa.o(i.__0printf) for __2printf
    veth_mac.o(.text) refers to veth_mac.o(.data) for Targ_MAC
    veth_mac.o(.text) refers to veth_mac.o(.constdata) for .constdata
    veth_port.o(.text) refers to veth_marvell_6097f.o(.text) for READ_PHYREGISTER
    veth_port.o(.text) refers to printfa.o(i.__0printf) for __2printf
    veth_port.o(.text) refers to veth_port.o(.data) for g_stats_mode
    veth_port.o(.text) refers to veth_hal_init.o(.text) for getSetType
    veth_vlan.o(.text) refers to veth_marvell_6097f.o(.text) for Set_VLAN_ingress_Type
    veth_vlan.o(.text) refers to printfa.o(i.__0printf) for __2printf
    veth_com.o(.text) refers to stm32f4xx_hal_uart.o(.text) for setUartConfig
    veth_com.o(.text) refers to stm32f4xx_hal_gpio.o(.text) for HAL_GPIO_WritePin
    veth_com.o(.text) refers to veth_hal_init.o(.bss) for Uart6Handle
    veth_com.o(.data) refers to veth_com.o(.conststring) for .conststring
    stm32f4xx_hal.o(.text) refers to stm32f4xx_hal_cortex.o(.text) for HAL_SYSTICK_Config
    stm32f4xx_hal.o(.text) refers to stm32f4xx_hal.o(.data) for uwTick
    stm32f4xx_hal.o(.text) refers to veth_hal_init.o(.data) for sCount
    stm32f4xx_hal_dma.o(.text) refers to printfa.o(i.__0printf) for __2printf
    stm32f4xx_hal_dma.o(.text) refers to stm32f4xx_hal.o(.text) for HAL_GetTick
    stm32f4xx_hal_dma.o(.text) refers to veth_serial.o(.data) for transfer_error_counter
    stm32f4xx_hal_dma_ex.o(.text) refers to printfa.o(i.__0printf) for __2printf
    stm32f4xx_hal_dma2d.o(.text) refers to stm32f4xx_hal.o(.text) for HAL_GetTick
    stm32f4xx_hal_eth.o(.text) refers to stm32f4xx_hal.o(.text) for HAL_Delay
    stm32f4xx_hal_eth.o(.text) refers to stm32f4xx_hal_rcc.o(.text) for HAL_RCC_GetHCLKFreq
    stm32f4xx_hal_flash.o(.text) refers to stm32f4xx_hal.o(.text) for HAL_GetTick
    stm32f4xx_hal_flash.o(.text) refers to stm32f4xx_hal_flash_ex.o(.text) for FLASH_Erase_Sector
    stm32f4xx_hal_flash.o(.text) refers to stm32f4xx_hal_flash.o(.bss) for pFlash
    stm32f4xx_hal_flash_ex.o(.text) refers to stm32f4xx_hal_flash.o(.text) for FLASH_WaitForLastOperation
    stm32f4xx_hal_flash_ex.o(.text) refers to printfa.o(i.__0printf) for __2printf
    stm32f4xx_hal_flash_ex.o(.text) refers to stm32f4xx_hal_flash.o(.bss) for pFlash
    stm32f4xx_hal_i2c.o(.text) refers to stm32f4xx_hal_rcc.o(.text) for HAL_RCC_GetPCLK1Freq
    stm32f4xx_hal_i2c.o(.text) refers to stm32f4xx_hal.o(.text) for HAL_GetTick
    stm32f4xx_hal_i2c.o(.text) refers to stm32f4xx_hal_dma.o(.text) for HAL_DMA_Start_IT
    stm32f4xx_hal_nor.o(.text) refers to stm32f4xx_ll_fmc.o(.text) for FMC_NORSRAM_Init
    stm32f4xx_hal_nor.o(.text) refers to main.o(.text) for Delay
    stm32f4xx_hal_nor.o(.text) refers to stm32f4xx_hal.o(.text) for HAL_GetTick
    stm32f4xx_hal_pwr_ex.o(.text) refers to stm32f4xx_hal.o(.text) for HAL_GetTick
    stm32f4xx_hal_rcc.o(.text) refers to stm32f4xx_hal.o(.text) for HAL_GetTick
    stm32f4xx_hal_rcc.o(.text) refers to stm32f4xx_hal_gpio.o(.text) for HAL_GPIO_Init
    stm32f4xx_hal_rcc.o(.text) refers to stm32f4xx_hal_rcc.o(.constdata) for APBAHBPrescTable
    stm32f4xx_hal_rcc.o(.text) refers to system_stm32f4xx.o(.data) for SystemCoreClock
    stm32f4xx_hal_rcc_ex.o(.text) refers to stm32f4xx_hal.o(.text) for HAL_GetTick
    stm32f4xx_hal_sdram.o(.text) refers to stm32f4xx_ll_fmc.o(.text) for FMC_SDRAM_Init
    stm32f4xx_hal_sdram.o(.text) refers to stm32f4xx_hal_dma.o(.text) for HAL_DMA_Start_IT
    stm32f4xx_hal_tim.o(.text) refers to stm32f4xx_hal_dma.o(.text) for HAL_DMA_Start_IT
    stm32f4xx_hal_tim.o(.text) refers to stm32f4xx_hal_tim_ex.o(.text) for HAL_TIMEx_BreakCallback
    stm32f4xx_hal_tim.o(.text) refers to veth_hal_init.o(.data) for sCount
    stm32f4xx_hal_tim_ex.o(.text) refers to stm32f4xx_hal_tim.o(.text) for TIM_Base_SetConfig
    stm32f4xx_hal_tim_ex.o(.text) refers to stm32f4xx_hal_dma.o(.text) for HAL_DMA_Start_IT
    stm32f4xx_hal_uart.o(.text) refers to stm32f4xx_hal_rcc.o(.text) for HAL_RCC_GetPCLK2Freq
    stm32f4xx_hal_uart.o(.text) refers to stm32f4xx_hal.o(.text) for HAL_GetTick
    stm32f4xx_hal_uart.o(.text) refers to memcpya.o(.text) for __aeabi_memcpy4
    stm32f4xx_hal_uart.o(.text) refers to stm32f4xx_hal_dma.o(.text) for HAL_DMA_Start_IT
    stm32f4xx_hal_uart.o(.text) refers to main.o(.text) for Delay
    stm32f4xx_hal_uart.o(.text) refers to veth_serial.o(.text) for uartRecieveIdleCallback
    stm32f4xx_hal_uart.o(.text) refers to veth_hal_init.o(.bss) for COM6_RX_buffer
    stm32f4xx_hal_uart.o(.text) refers to stm32f4xx_hal_uart.o(.bss) for Command
    stm32f4xx_hal_uart.o(.text) refers to stm32f4xx_hal_uart.o(.data) for comd
    stm32f4xx_hal_uart.o(.text) refers to veth_com_usart.o(.data) for code_targ
    stm32f4xx_hal_uart.o(.data) refers to stm32f4xx_hal_uart.o(.conststring) for .conststring
    stm32f4xx_ll_fmc.o(.text) refers to stm32f4xx_hal.o(.text) for HAL_GetTick
    igmp.o(.text) refers to memp.o(.text) for memp_malloc
    igmp.o(.text) refers to rand.o(.text) for rand
    igmp.o(.text) refers to pbuf.o(.text) for pbuf_header
    igmp.o(.text) refers to inet_chksum.o(.text) for inet_chksum
    igmp.o(.text) refers to igmp.o(.data) for allsystems
    igmp.o(.text) refers to stats.o(.bss) for lwip_stats
    igmp.o(.text) refers to ip.o(.text) for ip_output_if_opt
    igmp.o(.text) refers to printfa.o(i.__0fprintf) for __2fprintf
    igmp.o(.text) refers to ip_addr.o(.constdata) for ip_addr_any
    igmp.o(.text) refers to stderr.o(.data) for __stderr
    igmp.o(.text) refers to netif.o(.data) for netif_list
    init.o(.text) refers to stats.o(.text) for stats_init
    init.o(.text) refers to mem.o(.text) for mem_init
    init.o(.text) refers to memp.o(.text) for memp_init
    init.o(.text) refers to netif.o(.text) for netif_init
    init.o(.text) refers to udp.o(.text) for udp_init
    init.o(.text) refers to tcp.o(.text) for tcp_init
    init.o(.text) refers to msg_in.o(.text) for snmp_init
    init.o(.text) refers to igmp.o(.text) for igmp_init
    init.o(.text) refers to timers.o(.text) for sys_timeouts_init
    mib_structs.o(.text) refers to printfa.o(i.__0fprintf) for __2fprintf
    mib_structs.o(.text) refers to memp.o(.text) for memp_malloc
    mib_structs.o(.text) refers to mib_structs.o(.data) for node_stack_cnt
    mib_structs.o(.text) refers to stderr.o(.data) for __stderr
    mib_structs.o(.text) refers to mib_structs.o(.bss) for node_stack
    mib_structs.o(.text) refers to netif.o(.data) for netif_list
    mib_structs.o(.text) refers to mib2.o(.text) for noleafs_get_object_def
    mib_structs.o(.text) refers to mib_structs.o(.constdata) for prefix
    mib2.o(.text) refers to memcpya.o(.text) for __aeabi_memcpy4
    mib2.o(.text) refers to sys.o(.text) for sys_now
    mib2.o(.text) refers to mib_structs.o(.text) for snmp_mib_node_insert
    mib2.o(.text) refers to etharp.o(.text) for etharp_find_addr
    mib2.o(.text) refers to printfa.o(i.__0fprintf) for __2fprintf
    mib2.o(.text) refers to mib2.o(.data) for sysdescr_ptr
    mib2.o(.text) refers to stderr.o(.data) for __stderr
    mib2.o(.text) refers to netif.o(.data) for netif_list
    mib2.o(.text) refers to mib2.o(.constdata) for iprouteinfo
    mib2.o(.text) refers to udp.o(.data) for udp_pcbs
    mib2.o(.text) refers to strlen.o(.text) for strlen
    mib2.o(.text) refers to veth_port.o(.text) for Get_link_status
    mib2.o(.text) refers to veth_marvell_6097f.o(.text) for Get_Port_Counters_det
    mib2.o(.text) refers to tcp.o(.data) for tcp_active_pcbs
    mib2.o(.constdata) refers to mib2.o(.text) for snmp_get_object_def
    mib2.o(.constdata) refers to mib2.o(.data) for udp_root
    mib2.o(.data) refers to mib2.o(.conststring) for .conststring
    mib2.o(.data) refers to mib2.o(.text) for noleafs_get_object_def
    mib2.o(.data) refers to mib2.o(.constdata) for udpentry
    msg_in.o(.text) refers to memp.o(.text) for memp_free
    msg_in.o(.text) refers to msg_out.o(.text) for snmp_send_response
    msg_in.o(.text) refers to mib_structs.o(.text) for snmp_iso_prefix_tst
    msg_in.o(.text) refers to printfa.o(i.__0fprintf) for __2fprintf
    msg_in.o(.text) refers to mib2.o(.constdata) for internet
    msg_in.o(.text) refers to stderr.o(.data) for __stderr
    msg_in.o(.text) refers to memcpya.o(.text) for __aeabi_memcpy4
    msg_in.o(.text) refers to asn1_dec.o(.text) for snmp_asn1_dec_type
    msg_in.o(.text) refers to mib2.o(.text) for snmp_inc_snmpinasnparseerrs
    msg_in.o(.text) refers to msg_in.o(.bss) for msg_input_list
    msg_in.o(.text) refers to strncmp.o(.text) for strncmp
    msg_in.o(.text) refers to pbuf.o(.text) for pbuf_free
    msg_in.o(.text) refers to udp.o(.text) for udp_new
    msg_in.o(.text) refers to msg_in.o(.constdata) for snmp_publiccommunity
    msg_in.o(.text) refers to msg_in.o(.data) for snmp1_pcb
    msg_in.o(.text) refers to ip_addr.o(.constdata) for ip_addr_any
    msg_in.o(.text) refers to msg_out.o(.bss) for trap_msg
    msg_out.o(.text) refers to asn1_enc.o(.text) for snmp_asn1_enc_type
    msg_out.o(.text) refers to msg_out.o(.data) for trap_dst
    msg_out.o(.text) refers to msg_in.o(.constdata) for snmp_version
    msg_out.o(.text) refers to pbuf.o(.text) for pbuf_alloc
    msg_out.o(.text) refers to mib2.o(.text) for snmp_inc_snmpouttoobigs
    msg_out.o(.text) refers to udp.o(.text) for udp_connect
    msg_out.o(.text) refers to ip.o(.text) for ip_route
    msg_out.o(.text) refers to msg_out.o(.bss) for trap_msg
    stats.o(.text) refers to memcpya.o(.text) for __aeabi_memcpy4
    stats.o(.text) refers to stats.o(.constdata) for .constdata
    stats.o(.text) refers to stats.o(.bss) for lwip_stats
    stats.o(.constdata) refers to stats.o(.conststring) for .conststring
    sys.o(.text) refers to veth_hal_init.o(.data) for msCount
    tcp.o(.text) refers to pbuf.o(.text) for pbuf_free
    tcp.o(.text) refers to memp.o(.text) for memp_free
    tcp.o(.text) refers to printfa.o(i.__0fprintf) for __2fprintf
    tcp.o(.text) refers to tcp_out.o(.text) for tcp_zero_window_probe
    tcp.o(.text) refers to tcp.o(.data) for tcp_ticks
    tcp.o(.text) refers to stderr.o(.data) for __stderr
    tcp.o(.text) refers to tcp.o(.constdata) for tcp_persist_backoff
    tcp.o(.text) refers to timers.o(.text) for tcp_timer_needed
    tcp.o(.text) refers to mib2.o(.text) for snmp_inc_tcpattemptfails
    tcp.o(.text) refers to ip.o(.text) for ip_route
    tcp.o(.text) refers to stats.o(.bss) for lwip_stats
    tcp.o(.text) refers to memseta.o(.text) for __aeabi_memclr4
    tcp.o(.constdata) refers to tcp.o(.conststring) for .conststring
    tcp.o(.constdata) refers to tcp.o(.data) for tcp_listen_pcbs
    tcp_in.o(.text) refers to printfa.o(i.__0fprintf) for __2fprintf
    tcp_in.o(.text) refers to tcp_out.o(.text) for tcp_rexmit_fast
    tcp_in.o(.text) refers to pbuf.o(.text) for pbuf_clen
    tcp_in.o(.text) refers to def.o(.text) for lwip_ntohs
    tcp_in.o(.text) refers to tcp.o(.text) for tcp_seg_free
    tcp_in.o(.text) refers to stderr.o(.data) for __stderr
    tcp_in.o(.text) refers to tcp_in.o(.data) for flags
    tcp_in.o(.text) refers to tcp.o(.data) for tcp_ticks
    tcp_in.o(.text) refers to tcp_in.o(.bss) for inseg
    tcp_in.o(.text) refers to ip.o(.data) for current_iphdr_src
    tcp_in.o(.text) refers to timers.o(.text) for tcp_timer_needed
    tcp_in.o(.text) refers to mib2.o(.text) for snmp_inc_tcppassiveopens
    tcp_in.o(.text) refers to stats.o(.bss) for lwip_stats
    tcp_in.o(.text) refers to ip_addr.o(.text) for ip4_addr_isbroadcast
    tcp_in.o(.text) refers to inet_chksum.o(.text) for inet_chksum_pseudo
    tcp_in.o(.text) refers to memp.o(.text) for memp_free
    tcp_out.o(.text) refers to pbuf.o(.text) for pbuf_alloc
    tcp_out.o(.text) refers to printfa.o(i.__0fprintf) for __2fprintf
    tcp_out.o(.text) refers to def.o(.text) for lwip_htons
    tcp_out.o(.text) refers to memp.o(.text) for memp_malloc
    tcp_out.o(.text) refers to tcp.o(.text) for tcp_seg_free
    tcp_out.o(.text) refers to stderr.o(.data) for __stderr
    tcp_out.o(.text) refers to stats.o(.bss) for lwip_stats
    tcp_out.o(.text) refers to tcp_out.o(.constdata) for .constdata
    tcp_out.o(.text) refers to memcpya.o(.text) for __aeabi_memcpy
    tcp_out.o(.text) refers to printfa.o(i.__0printf) for __2printf
    tcp_out.o(.text) refers to inet_chksum.o(.text) for inet_chksum_pseudo
    tcp_out.o(.text) refers to ip.o(.text) for ip_output
    tcp_out.o(.text) refers to mib2.o(.text) for snmp_inc_tcpoutsegs
    tcp_out.o(.text) refers to tcp.o(.data) for tcp_ticks
    tcp_out.o(.text) refers to tcp_in.o(.data) for tcp_input_pcb
    timers.o(.text) refers to memp.o(.text) for memp_malloc
    timers.o(.text) refers to printfa.o(i.__0fprintf) for __2fprintf
    timers.o(.text) refers to tcp.o(.text) for tcp_tmr
    timers.o(.text) refers to ip_frag.o(.text) for ip_reass_tmr
    timers.o(.text) refers to etharp.o(.text) for etharp_tmr
    timers.o(.text) refers to igmp.o(.text) for igmp_tmr
    timers.o(.text) refers to sys.o(.text) for sys_now
    timers.o(.text) refers to stderr.o(.data) for __stderr
    timers.o(.text) refers to timers.o(.data) for next_timeout
    timers.o(.text) refers to tcp.o(.data) for tcp_active_pcbs
    udp.o(.text) refers to pbuf.o(.text) for pbuf_header
    udp.o(.text) refers to mib2.o(.text) for snmp_inc_udpinerrors
    udp.o(.text) refers to ip_addr.o(.text) for ip4_addr_isbroadcast
    udp.o(.text) refers to def.o(.text) for lwip_ntohs
    udp.o(.text) refers to inet_chksum.o(.text) for inet_chksum_pseudo
    udp.o(.text) refers to printfa.o(i.__0fprintf) for __2fprintf
    udp.o(.text) refers to icmp.o(.text) for icmp_dest_unreach
    udp.o(.text) refers to udp.o(.data) for udp_port
    udp.o(.text) refers to stats.o(.bss) for lwip_stats
    udp.o(.text) refers to ip.o(.data) for current_iphdr_dest
    udp.o(.text) refers to stderr.o(.data) for __stderr
    udp.o(.text) refers to ip.o(.text) for ip_output_if
    udp.o(.text) refers to memp.o(.text) for memp_free
    udp.o(.text) refers to memseta.o(.text) for __aeabi_memclr4
    etharp.o(.text) refers to mib2.o(.text) for snmp_delete_arpidx_tree
    etharp.o(.text) refers to pbuf.o(.text) for pbuf_free
    etharp.o(.text) refers to printfa.o(i.__0fprintf) for __2fprintf
    etharp.o(.text) refers to ip_addr.o(.text) for ip4_addr_isbroadcast
    etharp.o(.text) refers to etharp.o(.bss) for arp_table
    etharp.o(.text) refers to etharp.o(.constdata) for ethzero
    etharp.o(.text) refers to stderr.o(.data) for __stderr
    etharp.o(.text) refers to ip.o(.text) for ip_route
    etharp.o(.text) refers to def.o(.text) for lwip_htons
    etharp.o(.text) refers to stats.o(.bss) for lwip_stats
    etharp.o(.text) refers to etharp.o(.data) for etharp_cached_entry
    etharp.o(.text) refers to memcmp.o(.text) for memcmp
    etharp.o(.data) refers to etharp.o(.conststring) for .conststring
    ethernetif.o(.text) refers to veth_hal_init.o(.text) for uip_MAC_Init
    ethernetif.o(.text) refers to memseta.o(.text) for __aeabi_memclr4
    ethernetif.o(.text) refers to memcpya.o(.text) for __aeabi_memcpy
    ethernetif.o(.text) refers to veth_eth_ap.o(.text) for uip_Tx_Packet
    ethernetif.o(.text) refers to veth_marvell_6097f.o(.text) for Str_cmp
    ethernetif.o(.text) refers to veth_rstp.o(.text) for RSTP
    ethernetif.o(.text) refers to pbuf.o(.text) for pbuf_alloc
    ethernetif.o(.text) refers to etharp.o(.text) for ethernet_input
    ethernetif.o(.text) refers to printfa.o(i.__0fprintf) for __2fprintf
    ethernetif.o(.text) refers to mem.o(.text) for mem_malloc
    ethernetif.o(.text) refers to printfa.o(i.__0sprintf) for __2sprintf
    ethernetif.o(.text) refers to web_main.o(.data) for board
    ethernetif.o(.text) refers to stats.o(.bss) for lwip_stats
    ethernetif.o(.text) refers to veth_hal_init.o(.data) for MGMT_MAC
    ethernetif.o(.text) refers to veth_rstp.o(.data) for rstp_pt
    ethernetif.o(.text) refers to stderr.o(.data) for __stderr
    ethernetif.o(.data) refers to ethernetif.o(.conststring) for .conststring
    icmp.o(.text) refers to mib2.o(.text) for snmp_inc_icmpinmsgs
    icmp.o(.text) refers to pbuf.o(.text) for pbuf_header
    icmp.o(.text) refers to ip_addr.o(.text) for ip4_addr_isbroadcast
    icmp.o(.text) refers to inet_chksum.o(.text) for inet_chksum_pbuf
    icmp.o(.text) refers to printfa.o(i.__0fprintf) for __2fprintf
    icmp.o(.text) refers to ip.o(.text) for ip_output_if
    icmp.o(.text) refers to memcpya.o(.text) for __aeabi_memcpy
    icmp.o(.text) refers to stats.o(.bss) for lwip_stats
    icmp.o(.text) refers to ip.o(.data) for current_iphdr_dest
    icmp.o(.text) refers to stderr.o(.data) for __stderr
    inet_chksum.o(.text) refers to def.o(.text) for lwip_htons
    inet_chksum.o(.text) refers to printfa.o(i.__0fprintf) for __2fprintf
    inet_chksum.o(.text) refers to stderr.o(.data) for __stderr
    ip.o(.text) refers to mib2.o(.text) for snmp_inc_ipoutnoroutes
    ip.o(.text) refers to pbuf.o(.text) for pbuf_free
    ip.o(.text) refers to def.o(.text) for lwip_ntohs
    ip.o(.text) refers to inet_chksum.o(.text) for inet_chksum
    ip.o(.text) refers to igmp.o(.text) for igmp_lookfor_group
    ip.o(.text) refers to ip_addr.o(.text) for ip4_addr_isbroadcast
    ip.o(.text) refers to ip_frag.o(.text) for ip_reass
    ip.o(.text) refers to raw.o(.text) for raw_input
    ip.o(.text) refers to udp.o(.text) for udp_input
    ip.o(.text) refers to tcp_in.o(.text) for tcp_input
    ip.o(.text) refers to icmp.o(.text) for icmp_input
    ip.o(.text) refers to printfa.o(i.__0fprintf) for __2fprintf
    ip.o(.text) refers to memcpya.o(.text) for __aeabi_memcpy
    ip.o(.text) refers to memseta.o(.text) for __aeabi_memclr
    ip.o(.text) refers to netif.o(.data) for netif_list
    ip.o(.text) refers to stats.o(.bss) for lwip_stats
    ip.o(.text) refers to ip.o(.data) for current_iphdr_dest
    ip.o(.text) refers to stderr.o(.data) for __stderr
    ip.o(.text) refers to printfa.o(i.__0printf) for __2printf
    ip_addr.o(.text) refers to def.o(.text) for lwip_htonl
    ip_addr.o(.text) refers to printfa.o(i.__0fprintf) for __2fprintf
    ip_addr.o(.text) refers to stderr.o(.data) for __stderr
    ip_addr.o(.text) refers to ip_addr.o(.bss) for str
    ip_frag.o(.text) refers to printfa.o(i.__0fprintf) for __2fprintf
    ip_frag.o(.text) refers to memp.o(.text) for memp_free
    ip_frag.o(.text) refers to mib2.o(.text) for snmp_inc_ipreasmfails
    ip_frag.o(.text) refers to memcpya.o(.text) for __aeabi_memcpy
    ip_frag.o(.text) refers to icmp.o(.text) for icmp_time_exceeded
    ip_frag.o(.text) refers to pbuf.o(.text) for pbuf_clen
    ip_frag.o(.text) refers to memseta.o(.text) for __aeabi_memclr4
    ip_frag.o(.text) refers to def.o(.text) for lwip_ntohs
    ip_frag.o(.text) refers to ip_frag.o(.data) for reassdatagrams
    ip_frag.o(.text) refers to stderr.o(.data) for __stderr
    ip_frag.o(.text) refers to stats.o(.bss) for lwip_stats
    ip_frag.o(.text) refers to inet_chksum.o(.text) for inet_chksum
    mem.o(.text) refers to printfa.o(i.__0fprintf) for __2fprintf
    mem.o(.text) refers to mem.o(.data) for ram
    mem.o(.text) refers to stderr.o(.data) for __stderr
    mem.o(.text) refers to mem.o(.bss) for ram_heap
    mem.o(.text) refers to stats.o(.bss) for lwip_stats
    mem.o(.text) refers to memseta.o(.text) for __aeabi_memclr
    memp.o(.text) refers to printfa.o(i.__0fprintf) for __2fprintf
    memp.o(.text) refers to stats.o(.bss) for lwip_stats
    memp.o(.text) refers to memp.o(.constdata) for memp_num
    memp.o(.text) refers to memp.o(.bss) for memp_memory
    memp.o(.text) refers to stderr.o(.data) for __stderr
    memp.o(.data) refers to memp.o(.conststring) for .conststring
    netif.o(.text) refers to mib2.o(.text) for snmp_delete_iprteidx_tree
    netif.o(.text) refers to main.o(.text) for Delays
    netif.o(.text) refers to tcp.o(.text) for tcp_abort
    netif.o(.text) refers to printfa.o(i.__0fprintf) for __2fprintf
    netif.o(.text) refers to igmp.o(.text) for igmp_start
    netif.o(.text) refers to etharp.o(.text) for etharp_cleanup_netif
    netif.o(.text) refers to tcp.o(.data) for tcp_active_pcbs
    netif.o(.text) refers to stderr.o(.data) for __stderr
    netif.o(.text) refers to netif.o(.data) for netif_num
    pbuf.o(.text) refers to printfa.o(i.__0fprintf) for __2fprintf
    pbuf.o(.text) refers to memp.o(.text) for memp_free
    pbuf.o(.text) refers to mem.o(.text) for mem_free
    pbuf.o(.text) refers to stderr.o(.data) for __stderr
    pbuf.o(.text) refers to memcpya.o(.text) for __aeabi_memcpy
    pbuf.o(.text) refers to strlen.o(.text) for strlen
    raw.o(.text) refers to pbuf.o(.text) for pbuf_header
    raw.o(.text) refers to printfa.o(i.__0fprintf) for __2fprintf
    raw.o(.text) refers to ip.o(.text) for ip_route
    raw.o(.text) refers to memp.o(.text) for memp_free
    raw.o(.text) refers to memseta.o(.text) for __aeabi_memclr4
    raw.o(.text) refers to raw.o(.data) for raw_pcbs
    raw.o(.text) refers to ip.o(.data) for current_iphdr_dest
    raw.o(.text) refers to stderr.o(.data) for __stderr
    board_info.o(.text) refers to strcpy.o(.text) for strcpy
    board_info.o(.text) refers to veth_invariate.o(.text) for InVariate_Default
    board_info.o(.text) refers to memcpya.o(.text) for __aeabi_memcpy
    board_info.o(.text) refers to memseta.o(.text) for __aeabi_memset
    board_info.o(.text) refers to system_info.o(.text) for generateSystemCompileDate
    board_info.o(.text) refers to veth_com.o(.text) for setChipMode
    board_info.o(.text) refers to printfa.o(i.__0printf) for __2printf
    board_info.o(.text) refers to vlan.o(.text) for modifySwitchVlanPorts
    board_info.o(.text) refers to veth_vlan.o(.text) for setVlanMember
    board_info.o(.text) refers to veth_port.o(.text) for Set_flow_control
    board_info.o(.text) refers to veth_mac.o(.text) for Set_Age_time
    board_info.o(.text) refers to veth_marvell_6097f.o(.text) for Set_Manual_learning_mode
    board_info.o(.text) refers to strcmp.o(.text) for strcmp
    board_info.o(.text) refers to veth_hal_init.o(.data) for the_magic
    board_info.o(.text) refers to web_main.o(.data) for board
    board_info.o(.text) refers to system_info.o(.data) for is_recover_factory
    board_info.o(.text) refers to crc16.o(.text) for doCRC16
    board_info.o(.text) refers to system_maintain.o(.bss) for remote_serial_server_socket
    board_info.o(.data) refers to board_info.o(.conststring) for .conststring
    fs.o(.text) refers to session.o(.text) for getSession
    fs.o(.text) refers to strchr.o(.text) for strchr
    fs.o(.text) refers to httpd-cgi.o(.text) for generateDataFile
    fs.o(.text) refers to jsonutility.o(.text) for generateConfigJSON
    fs.o(.text) refers to strlen.o(.text) for strlen
    fs.o(.text) refers to strcmp.o(.text) for strcmp
    fs.o(.text) refers to malloc.o(i.malloc) for malloc
    fs.o(.text) refers to malloc.o(i.free) for free
    fs.o(.text) refers to httpd.o(.data) for current_http_connection
    fs.o(.text) refers to httpd-cgi.o(.data) for is_file_download
    fs.o(.text) refers to board_info.o(.data) for download_config_file_request
    fs.o(.text) refers to jsonutility.o(.data) for final_JSON_result
    fs.o(.text) refers to session.o(.data) for session_root
    fs.o(.text) refers to fs.o(.data) for file__vlan_port_stat_shtml
    fs.o(.data) refers to fs.o(.conststring) for .conststring
    web_main.o(.text) refers to printfa.o(i.__0printf) for __2printf
    web_main.o(.text) refers to serialqueue.o(.text) for removeAllQueueNode
    web_main.o(.text) refers to serialutility.o(.text) for checkLocalSerialTransmit
    web_main.o(.text) refers to serialclientudp.o(.text) for processSerialClientUdpConnection
    web_main.o(.text) refers to serialclient.o(.text) for serialClientConnect
    web_main.o(.text) refers to main.o(.text) for WatchDogTimerReset
    web_main.o(.text) refers to memseta.o(.text) for __aeabi_memclr4
    web_main.o(.text) refers to veth_invariate.o(.text) for getInvariate
    web_main.o(.text) refers to board_info.o(.text) for calculateChecksum
    web_main.o(.text) refers to ntp_client.o(.text) for connectNTPServer
    web_main.o(.text) refers to printfa.o(i.__0sprintf) for __2sprintf
    web_main.o(.text) refers to logutility.o(.text) for addLogEntry
    web_main.o(.text) refers to netif.o(.text) for netif_add
    web_main.o(.text) refers to mem.o(.text) for mem_init
    web_main.o(.text) refers to init.o(.text) for lwip_init
    web_main.o(.text) refers to httpd.o(.text) for httpd_init
    web_main.o(.text) refers to ports.o(.text) for initPorts
    web_main.o(.text) refers to vlan.o(.text) for initFirstVlan
    web_main.o(.text) refers to mac_link.o(.text) for initRoot
    web_main.o(.text) refers to strcpy.o(.text) for strcpy
    web_main.o(.text) refers to memcpya.o(.text) for __aeabi_memcpy
    web_main.o(.text) refers to veth_hal_init.o(.data) for msCount
    web_main.o(.text) refers to web_main.o(.data) for serial_data_timeout
    web_main.o(.text) refers to serialqueue.o(.bss) for client_array_queue
    web_main.o(.text) refers to web_main.o(.bss) for board_temp
    web_main.o(.text) refers to ntp_client.o(.data) for is_need_record_time_log
    web_main.o(.text) refers to board_info.o(.data) for ports_num
    web_main.o(.text) refers to fs.o(.data) for data__lib_config_js
    web_main.o(.text) refers to ports.o(.data) for band_width_refresh_time
    web_main.o(.text) refers to etharp.o(.text) for ethernet_input
    web_main.o(.text) refers to ethernetif.o(.text) for ethernetif_init
    web_main.o(.text) refers to netif.o(.bss) for veth_netif
    web_main.o(.text) refers to httpd-cgi.o(.data) for is_file_download
    web_main.o(.text) refers to system_maintain.o(.bss) for save_all_config_result
    web_main.o(.text) refers to user.o(.bss) for login_status
    web_main.o(.text) refers to mib_structs.o(.text) for snmp_ifindextonetif
    web_main.o(.text) refers to mib2.o(.text) for snmp_get_sysuptime
    web_main.o(.text) refers to veth_port.o(.text) for Get_link_status
    web_main.o(.text) refers to system_info.o(.text) for calcSystemTime
    web_main.o(.text) refers to system_maintain.o(.text) for generateSystemUpdateStatus
    web_main.o(.text) refers to memcmp.o(.text) for memcmp
    web_main.o(.text) refers to malloc.o(i.free) for free
    web_main.o(.text) refers to session.o(.text) for deleteSession
    web_main.o(.text) refers to veth_hal_init.o(.text) for getSetType
    web_main.o(.text) refers to serialserver.o(.text) for initDefaultSerialPort
    web_main.o(.text) refers to timer.o(.text) for timer_init
    web_main.o(.text) refers to veth_com_usart.o(.text) for CLI
    web_main.o(.text) refers to tcp.o(.text) for tcp_tmr
    web_main.o(.text) refers to ip_frag.o(.text) for ip_reass_tmr
    web_main.o(.text) refers to igmp.o(.text) for igmp_tmr
    web_main.o(.text) refers to veth_serial.o(.text) for serialClient
    web_main.o(.text) refers to system_maintain.o(.data) for network_update_sucess
    web_main.o(.text) refers to web_main.o(.constdata) for .constdata
    web_main.o(.text) refers to system_info.o(.data) for is_recover_factory
    web_main.o(.text) refers to session.o(.data) for session_root
    web_main.o(.text) refers to board_info.o(.bss) for is_modify_port
    web_main.o(.text) refers to serialserver.o(.bss) for recv_total_data
    web_main.o(.text) refers to serialserverudp.o(.bss) for udp_serv_recv
    web_main.o(.text) refers to veth_com_usart.o(.data) for cli_pt
    web_main.o(.text) refers to veth_rstp.o(.data) for rstp_pt
    web_main.o(.text) refers to veth_hal_init.o(.bss) for Uart1Handle
    web_main.o(.data) refers to web_main.o(.conststring) for .conststring
    ip_config.o(.text) refers to netif.o(.text) for netif_set_ipaddr
    ip_config.o(.text) refers to strcpy.o(.text) for strcpy
    ip_config.o(.text) refers to strtok.o(.text) for strtok
    ip_config.o(.text) refers to atoi.o(.text) for atoi
    ip_config.o(.text) refers to request.o(.text) for getParameter
    ip_config.o(.text) refers to strcmp.o(.text) for strcmp
    ip_config.o(.text) refers to memcmp.o(.text) for memcmp
    ip_config.o(.text) refers to main.o(.text) for WatchDogTimerReset
    ip_config.o(.text) refers to veth_invariate.o(.text) for updateInvariate
    ip_config.o(.text) refers to memseta.o(.text) for __aeabi_memclr4
    ip_config.o(.text) refers to printfa.o(i.__0sprintf) for __2sprintf
    ip_config.o(.text) refers to logutility.o(.text) for addLogEntry
    ip_config.o(.text) refers to web_main.o(.data) for board
    ip_config.o(.text) refers to netif.o(.data) for netif_list
    ip_config.o(.text) refers to ip_config.o(.constdata) for .constdata
    ip_config.o(.data) refers to ip_config.o(.conststring) for .conststring
    crc16.o(.text) refers to crc16.o(.data) for crc_ccitt_tab
    httpd.o(.text) refers to strlen.o(.text) for strlen
    httpd.o(.text) refers to strncmp.o(.text) for strncmp
    httpd.o(.text) refers to mem.o(.text) for mem_malloc
    httpd.o(.text) refers to memseta.o(.text) for __aeabi_memclr4
    httpd.o(.text) refers to fs.o(.text) for fs_open
    httpd.o(.text) refers to printfa.o(i.__0printf) for __2printf
    httpd.o(.text) refers to strcpy.o(.text) for strcpy
    httpd.o(.text) refers to memcpya.o(.text) for __aeabi_memcpy
    httpd.o(.text) refers to malloc.o(i.free) for free
    httpd.o(.text) refers to printfa.o(i.__0fprintf) for __2fprintf
    httpd.o(.text) refers to tcp_out.o(.text) for tcp_write
    httpd.o(.text) refers to strcmp.o(.text) for strcmp
    httpd.o(.text) refers to system_maintain.o(.bss) for save_all_config_result
    httpd.o(.text) refers to user.o(.bss) for login_status
    httpd.o(.text) refers to stderr.o(.data) for __stderr
    httpd.o(.text) refers to httpd.o(.data) for g_pfnSSIHandler
    httpd.o(.text) refers to httpd.o(.constdata) for g_pcTagLeadIn
    httpd.o(.text) refers to httpd-cgi.o(.text) for processPostRequest
    httpd.o(.text) refers to pbuf.o(.text) for pbuf_free
    httpd.o(.text) refers to tcp.o(.text) for tcp_arg
    httpd.o(.text) refers to strstr.o(.text) for strstr
    httpd.o(.text) refers to strchr.o(.text) for strchr
    httpd.o(.text) refers to httpd-cgi.o(.data) for is_file_download
    httpd.o(.text) refers to httpd.o(.bss) for http_post_response_filename
    httpd.o(.text) refers to atoi.o(.text) for atoi
    httpd.o(.text) refers to board_info.o(.data) for download_config_file_request
    httpd.o(.text) refers to system_maintain.o(.data) for url_buf_length
    httpd.o(.text) refers to upload_file.o(.data) for http_header_length
    httpd.o(.text) refers to request.o(.text) for getHttpHeaderParameter
    httpd.o(.text) refers to malloc.o(i.malloc) for malloc
    httpd.o(.text) refers to ip_addr.o(.constdata) for ip_addr_any
    httpd.o(.constdata) refers to httpd.o(.conststring) for .conststring
    httpd.o(.data) refers to httpd.o(.conststring) for .conststring
    httpd-cgi.o(.text) refers to strncpy.o(.text) for strncpy
    httpd-cgi.o(.text) refers to printfa.o(i.__0printf) for __2printf
    httpd-cgi.o(.text) refers to strchr.o(.text) for strchr
    httpd-cgi.o(.text) refers to memseta.o(.text) for __aeabi_memclr4
    httpd-cgi.o(.text) refers to request.o(.text) for getParameter
    httpd-cgi.o(.text) refers to strcmp.o(.text) for strcmp
    httpd-cgi.o(.text) refers to veth_port.o(.text) for Flush_ALL_counters
    httpd-cgi.o(.text) refers to ports.o(.text) for clearPreBandWidth
    httpd-cgi.o(.text) refers to atoi.o(.text) for atoi
    httpd-cgi.o(.text) refers to vlan.o(.text) for generateVlanStatus
    httpd-cgi.o(.text) refers to logutility.o(.text) for getSystemLogEntry
    httpd-cgi.o(.text) refers to mac_table.o(.text) for getDyanMacTable
    httpd-cgi.o(.text) refers to mac_link.o(.text) for deleteDymMacEntry
    httpd-cgi.o(.text) refers to veth_mac.o(.text) for Flush_MAC_entry
    httpd-cgi.o(.text) refers to serialutility.o(.text) for getSerialConfig
    httpd-cgi.o(.text) refers to httpd-cgi.o(.data) for currentTotalPage
    httpd-cgi.o(.text) refers to mac_link.o(.data) for mac_root
    httpd-cgi.o(.text) refers to web_main.o(.data) for isFirstRequest
    httpd-cgi.o(.text) refers to mac.o(.text) for generateMacData
    httpd-cgi.o(.text) refers to system_info.o(.text) for generateIPConfigData
    httpd-cgi.o(.text) refers to system_maintain.o(.text) for generateConfigSaveResult
    httpd-cgi.o(.text) refers to strlen.o(.text) for strlen
    httpd-cgi.o(.text) refers to strstr.o(.text) for strstr
    httpd-cgi.o(.text) refers to strcpy.o(.text) for strcpy
    httpd-cgi.o(.text) refers to user.o(.text) for checkLogin
    httpd-cgi.o(.text) refers to ip_config.o(.text) for modifyIPConfig
    httpd-cgi.o(.text) refers to board_info.o(.data) for download_config_file_request
    httpd-cgi.o(.data) refers to httpd-cgi.o(.conststring) for .conststring
    ports.o(.text) refers to board_info.o(.text) for recoverConfigEntries
    ports.o(.text) refers to memseta.o(.text) for __aeabi_memclr4
    ports.o(.text) refers to veth_marvell_6097f.o(.text) for Get_Port_Counters_rou
    ports.o(.text) refers to veth_hal_init.o(.text) for getSetType
    ports.o(.text) refers to veth_port.o(.text) for getPortType
    ports.o(.text) refers to printfa.o(i.__0sprintf) for __2sprintf
    ports.o(.text) refers to strcat.o(.text) for strcat
    ports.o(.text) refers to dfltui.o(.text) for __aeabi_ui2d
    ports.o(.text) refers to cdcmple.o(.text) for __aeabi_cdcmple
    ports.o(.text) refers to ddiv.o(.text) for __aeabi_ddiv
    ports.o(.text) refers to dflti.o(.text) for __aeabi_i2d
    ports.o(.text) refers to dfltul.o(.text) for __aeabi_ul2d
    ports.o(.text) refers to dmul.o(.text) for __aeabi_dmul
    ports.o(.text) refers to web_main.o(.data) for isFirstRequestPorts
    ports.o(.text) refers to ports.o(.bss) for pre_rx_byte
    ports.o(.text) refers to veth_hal_init.o(.data) for msCount
    ports.o(.text) refers to board_info.o(.data) for ports_num
    ports.o(.text) refers to ports.o(.data) for upDown
    ports.o(.text) refers to strcpy.o(.text) for strcpy
    ports.o(.text) refers to request.o(.text) for getParameter
    ports.o(.text) refers to gbk_conv_hanzi.o(.text) for gbk_conv_hanzi
    ports.o(.text) refers to strlen.o(.text) for strlen
    ports.o(.text) refers to memcpya.o(.text) for __aeabi_memcpy
    ports.o(.text) refers to board_info.o(.bss) for is_modify_port
    ports.o(.text) refers to logutility.o(.text) for addLogEntry
    ports.o(.text) refers to ports.o(.constdata) for .constdata
    ports.o(.data) refers to ports.o(.conststring) for .conststring
    request.o(.text) refers to malloc.o(i.free) for free
    request.o(.text) refers to strstr.o(.text) for strstr
    request.o(.text) refers to strlen.o(.text) for strlen
    request.o(.text) refers to ctype_o.o(.text) for __rt_ctype_table
    request.o(.text) refers to strchr.o(.text) for strchr
    request.o(.text) refers to malloc.o(i.malloc) for malloc
    request.o(.text) refers to printfa.o(i.__0printf) for __2printf
    request.o(.text) refers to strncpy.o(.text) for strncpy
    request.o(.text) refers to strcpy.o(.text) for strcpy
    timer.o(.text) refers to mib2.o(.text) for snmp_inc_sysuptime
    timer.o(.text) refers to timer.o(.bss) for timers
    system_maintain.o(.text) refers to board_info.o(.text) for initBoardInfo
    system_maintain.o(.text) refers to veth_mac.o(.text) for Flush_MAC_entry
    system_maintain.o(.text) refers to mac_link.o(.text) for deleteDymMacEntry
    system_maintain.o(.text) refers to vlan_link.o(.text) for emptyVlanLink
    system_maintain.o(.text) refers to veth_invariate.o(.text) for updateInvariate
    system_maintain.o(.text) refers to ports.o(.text) for initPorts
    system_maintain.o(.text) refers to vlan.o(.text) for initFirstVlan
    system_maintain.o(.text) refers to memseta.o(.text) for __aeabi_memclr4
    system_maintain.o(.text) refers to strcpy.o(.text) for strcpy
    system_maintain.o(.text) refers to session.o(.text) for getSessionKey
    system_maintain.o(.text) refers to malloc.o(i.malloc) for malloc
    system_maintain.o(.text) refers to malloc.o(i.free) for free
    system_maintain.o(.text) refers to request.o(.text) for getHttpHeaderParameter
    system_maintain.o(.text) refers to strstr.o(.text) for strstr
    system_maintain.o(.text) refers to strlen.o(.text) for strlen
    system_maintain.o(.text) refers to printfa.o(i.__0printf) for __2printf
    system_maintain.o(.text) refers to printfa.o(i.__0sprintf) for __2sprintf
    system_maintain.o(.text) refers to findsubstring.o(.text) for findSubstring
    system_maintain.o(.text) refers to upload_file.o(.text) for getUploadFileName
    system_maintain.o(.text) refers to memcpya.o(.text) for __aeabi_memcpy
    system_maintain.o(.text) refers to veth_netupgrade.o(.text) for saveNetData
    system_maintain.o(.text) refers to dflti.o(.text) for __aeabi_i2d
    system_maintain.o(.text) refers to ddiv.o(.text) for __aeabi_ddiv
    system_maintain.o(.text) refers to jsonutility.o(.text) for parseJSONConetnt
    system_maintain.o(.text) refers to system_info.o(.text) for generateSystemCompileDate
    system_maintain.o(.text) refers to memcmp.o(.text) for memcmp
    system_maintain.o(.text) refers to web_main.o(.data) for board
    system_maintain.o(.text) refers to mac_link.o(.data) for mac_root
    system_maintain.o(.text) refers to vlan_link.o(.data) for vlan_root
    system_maintain.o(.text) refers to system_maintain.o(.data) for network_update_sucess
    system_maintain.o(.text) refers to veth_hal_init.o(.data) for sCount
    system_maintain.o(.text) refers to web_main.o(.bss) for board_temp
    system_maintain.o(.text) refers to system_maintain.o(.bss) for save_all_config_result
    system_maintain.o(.text) refers to httpd.o(.data) for current_http_connection
    system_maintain.o(.text) refers to session.o(.data) for session_root
    system_maintain.o(.text) refers to main.o(.ARM.__AT_0xC0600000) for recieved_package
    system_maintain.o(.data) refers to system_maintain.o(.conststring) for .conststring
    gbk_conv_hanzi.o(.text) refers to memseta.o(.text) for __aeabi_memclr
    gbk_conv_hanzi.o(.text) refers to strncpy.o(.text) for strncpy
    gbk_conv_hanzi.o(.text) refers to strcat.o(.text) for strcat
    gbk_conv_hanzi.o(.text) refers to strchr.o(.text) for strchr
    gbk_conv_hanzi.o(.text) refers to gbk_conv_hanzi.o(.bss) for result
    gbk_conv_hanzi.o(.text) refers to gbk_conv_hanzi.o(.data) for gbk_hanzi
    gbk_conv_hanzi.o(.data) refers to gbk_conv_hanzi.o(.conststring) for .conststring
    system_info.o(.text) refers to strcpy.o(.text) for strcpy
    system_info.o(.text) refers to malloc.o(i.malloc) for malloc
    system_info.o(.text) refers to printfa.o(i.__0printf) for __2printf
    system_info.o(.text) refers to localtime.o(.text) for localtime
    system_info.o(.text) refers to printfa.o(i.__0sprintf) for __2sprintf
    system_info.o(.text) refers to memcpya.o(.text) for __aeabi_memcpy4
    system_info.o(.text) refers to strncpy.o(.text) for strncpy
    system_info.o(.text) refers to strcmp.o(.text) for strcmp
    system_info.o(.text) refers to memseta.o(.text) for __aeabi_memclr4
    system_info.o(.text) refers to mac_link.o(.text) for getMacString
    system_info.o(.text) refers to memcmp.o(.text) for memcmp
    system_info.o(.text) refers to malloc.o(i.free) for free
    system_info.o(.text) refers to veth_hal_init.o(.data) for sCount
    system_info.o(.text) refers to system_info.o(.data) for time_update_interval
    system_info.o(.text) refers to system_info.o(.bss) for system_time
    system_info.o(.text) refers to web_main.o(.data) for board
    system_info.o(.text) refers to system_info.o(.constdata) for .constdata
    system_info.o(.text) refers to ntp_client.o(.data) for request_failed_num
    system_info.o(.constdata) refers to system_info.o(.conststring) for .conststring
    system_info.o(.data) refers to system_info.o(.conststring) for .conststring
    mac_link.o(.text) refers to printfa.o(i.__0sprintf) for __2sprintf
    mac_link.o(.text) refers to strcat.o(.text) for strcat
    mac_link.o(.text) refers to veth_marvell_6097f.o(.text) for Str_cmp
    mac_link.o(.text) refers to memseta.o(.text) for __aeabi_memclr4
    mac_link.o(.text) refers to logutility.o(.text) for addLogEntry
    mac_link.o(.text) refers to strcmp.o(.text) for strcmp
    mac_link.o(.text) refers to board_info.o(.text) for recoverConfigEntries
    mac_link.o(.text) refers to malloc.o(i.malloc) for malloc
    mac_link.o(.text) refers to printfa.o(i.__0printf) for __2printf
    mac_link.o(.text) refers to veth_mac.o(.text) for Display_ALL_MACentry
    mac_link.o(.text) refers to malloc.o(i.free) for free
    mac_link.o(.text) refers to memcmp.o(.text) for memcmp
    mac_link.o(.text) refers to mac.o(.text) for printfMacAddress
    mac_link.o(.text) refers to board_info.o(.data) for ports_num
    mac_link.o(.text) refers to mac_link.o(.data) for mac_addr_num
    mac_link.o(.text) refers to web_main.o(.data) for isFirstRequest
    mac_link.o(.text) refers to veth_mac.o(.data) for Targ_MAC
    mac_link.o(.text) refers to veth_hal_init.o(.data) for KEY_MAC
    mac_link.o(.data) refers to mac_link.o(.conststring) for .conststring
    mac_table.o(.text) refers to rand.o(.text) for rand
    mac_table.o(.text) refers to strcmp.o(.text) for strcmp
    mac_table.o(.text) refers to mac_link.o(.text) for initRoot
    mac_table.o(.text) refers to malloc.o(i.malloc) for malloc
    mac_table.o(.text) refers to memseta.o(.text) for __aeabi_memclr4
    mac_table.o(.text) refers to printfa.o(i.__0sprintf) for __2sprintf
    mac_table.o(.text) refers to strcat.o(.text) for strcat
    mac_table.o(.text) refers to mac.o(.text) for getPortsVectorArray
    mac_table.o(.text) refers to malloc.o(i.free) for free
    mac_table.o(.text) refers to mac_table.o(.data) for hex
    mac_table.o(.text) refers to board_info.o(.data) for ports_num
    mac_table.o(.text) refers to mac_table.o(.bss) for all_data
    mac_table.o(.text) refers to mac_link.o(.data) for mac_root
    mac_table.o(.data) refers to mac_table.o(.conststring) for .conststring
    mac.o(.text) refers to printfa.o(i.__0sprintf) for __2sprintf
    mac.o(.text) refers to strcat.o(.text) for strcat
    mac.o(.text) refers to mac_link.o(.text) for initRoot
    mac.o(.text) refers to veth_mac.o(.text) for Get_MAC_forbid
    mac.o(.text) refers to memseta.o(.text) for __aeabi_memclr4
    mac.o(.text) refers to veth_marvell_6097f.o(.text) for Str_cmp
    mac.o(.text) refers to memcmp.o(.text) for memcmp
    mac.o(.text) refers to strcpy.o(.text) for strcpy
    mac.o(.text) refers to strtok.o(.text) for strtok
    mac.o(.text) refers to board_info.o(.data) for ports_num
    mac.o(.text) refers to mac.o(.bss) for mac_status
    mac.o(.text) refers to web_main.o(.data) for board
    mac.o(.text) refers to mac_link.o(.data) for mac_root
    mac.o(.text) refers to veth_hal_init.o(.data) for MGMT_MAC
    mac.o(.text) refers to request.o(.text) for getParameter
    mac.o(.text) refers to logutility.o(.text) for addLogEntry
    mac.o(.text) refers to atoi.o(.text) for atoi
    mac.o(.text) refers to strcmp.o(.text) for strcmp
    mac.o(.text) refers to malloc.o(i.malloc) for malloc
    mac.o(.text) refers to printfa.o(i.__0printf) for __2printf
    mac.o(.data) refers to mac.o(.conststring) for .conststring
    vlan.o(.text) refers to memseta.o(.text) for __aeabi_memclr4
    vlan.o(.text) refers to printfa.o(i.__0sprintf) for __2sprintf
    vlan.o(.text) refers to malloc.o(i.malloc) for malloc
    vlan.o(.text) refers to strcpy.o(.text) for strcpy
    vlan.o(.text) refers to vlan_link.o(.text) for addVlanLinkNode
    vlan.o(.text) refers to board_info.o(.text) for recoverConfigEntries
    vlan.o(.text) refers to printfa.o(i.__0printf) for __2printf
    vlan.o(.text) refers to strcat.o(.text) for strcat
    vlan.o(.text) refers to strlen.o(.text) for strlen
    vlan.o(.text) refers to logutility.o(.text) for addLogEntry
    vlan.o(.text) refers to web_main.o(.data) for board
    vlan.o(.text) refers to vlan_link.o(.data) for vlan_root
    vlan.o(.text) refers to board_info.o(.data) for ports_num
    vlan.o(.text) refers to vlan.o(.bss) for vlan_status
    vlan.o(.text) refers to strcmp.o(.text) for strcmp
    vlan.o(.text) refers to memcpya.o(.text) for __aeabi_memcpy
    vlan.o(.text) refers to request.o(.text) for getParameter
    vlan.o(.text) refers to veth_vlan.o(.text) for setVlanMember
    vlan.o(.text) refers to gbk_conv_hanzi.o(.text) for gbk_conv_hanzi
    vlan.o(.text) refers to atoi.o(.text) for atoi
    vlan.o(.text) refers to malloc.o(i.free) for free
    vlan.o(.text) refers to vlan.o(.constdata) for .constdata
    vlan.o(.data) refers to vlan.o(.conststring) for .conststring
    vlan_link.o(.text) refers to strcmp.o(.text) for strcmp
    vlan_link.o(.text) refers to malloc.o(i.free) for free
    vlan_link.o(.text) refers to vlan.o(.text) for deleteBoardVlanMember
    vlan_link.o(.text) refers to vlan_link.o(.data) for vlan_num
    vlan_link.o(.data) refers to vlan_link.o(.conststring) for .conststring
    user.o(.text) refers to strrchr.o(.text) for strrchr
    user.o(.text) refers to request.o(.text) for getHttpFormStartLocation
    user.o(.text) refers to strncmp.o(.text) for strncmp
    user.o(.text) refers to session.o(.text) for getSession
    user.o(.text) refers to malloc.o(i.free) for free
    user.o(.text) refers to memseta.o(.text) for __aeabi_memclr
    user.o(.text) refers to strcpy.o(.text) for strcpy
    user.o(.text) refers to user.o(.bss) for login_status
    user.o(.data) refers to user.o(.conststring) for .conststring
    ntp_client.o(.text) refers to localtime.o(.text) for localtime
    ntp_client.o(.text) refers to printfa.o(i.__0printf) for __2printf
    ntp_client.o(.text) refers to memcpya.o(.text) for __aeabi_memcpy
    ntp_client.o(.text) refers to def.o(.text) for lwip_ntohl
    ntp_client.o(.text) refers to logutility.o(.text) for updateSystemLogTime
    ntp_client.o(.text) refers to system_info.o(.text) for calcSystemTime
    ntp_client.o(.text) refers to memseta.o(.text) for __aeabi_memclr4
    ntp_client.o(.text) refers to printfa.o(i.__0sprintf) for __2sprintf
    ntp_client.o(.text) refers to malloc.o(i.free) for free
    ntp_client.o(.text) refers to pbuf.o(.text) for pbuf_free
    ntp_client.o(.text) refers to udp.o(.text) for udp_send
    ntp_client.o(.text) refers to veth_hal_init.o(.data) for sCount
    ntp_client.o(.text) refers to system_info.o(.data) for system_start_time
    ntp_client.o(.text) refers to ntp_client.o(.bss) for ntp_client
    ntp_client.o(.text) refers to ntp_client.o(.data) for request_failed_num
    ntp_client.o(.text) refers to system_info.o(.bss) for system_time
    ntp_client.o(.text) refers to web_main.o(.data) for ntp_request_timeout
    ntp_client.o(.text) refers to ip_addr.o(.constdata) for ip_addr_any
    ntp_client.o(.data) refers to ntp_client.o(.conststring) for .conststring
    cjson.o(.text) refers to tolower.o(.text) for tolower
    cjson.o(.text) refers to strlen.o(.text) for strlen
    cjson.o(.text) refers to memcpya.o(.text) for __aeabi_memcpy
    cjson.o(.text) refers to memseta.o(.text) for __aeabi_memclr4
    cjson.o(.text) refers to dflti.o(.text) for __aeabi_i2d
    cjson.o(.text) refers to dmul.o(.text) for __aeabi_dmul
    cjson.o(.text) refers to dadd.o(.text) for __aeabi_dadd
    cjson.o(.text) refers to pow.o(i.__hardfp_pow) for __hardfp_pow
    cjson.o(.text) refers to dfixi.o(.text) for __aeabi_d2iz
    cjson.o(.text) refers to cdcmple.o(.text) for __aeabi_cdcmpeq
    cjson.o(.text) refers to cjson.o(.data) for ep
    cjson.o(.text) refers to malloc.o(i.malloc) for malloc
    cjson.o(.text) refers to malloc.o(i.free) for free
    cjson.o(.text) refers to fabs.o(i.__hardfp_fabs) for __hardfp_fabs
    cjson.o(.text) refers to cdrcmple.o(.text) for __aeabi_cdrcmple
    cjson.o(.text) refers to printfa.o(i.__0sprintf) for __2sprintf
    cjson.o(.text) refers to floor.o(i.__hardfp_floor) for __hardfp_floor
    cjson.o(.text) refers to strcpy.o(.text) for strcpy
    cjson.o(.text) refers to strchr.o(.text) for strchr
    cjson.o(.text) refers to cjson.o(.constdata) for firstByteMark
    cjson.o(.text) refers to strncmp.o(.text) for strncmp
    cjson.o(.text) refers to dfltui.o(.text) for __aeabi_ui2d
    cjson.o(.text) refers to f2d.o(.text) for __aeabi_f2d
    cjson.o(.data) refers to malloc.o(i.malloc) for malloc
    cjson.o(.data) refers to malloc.o(i.free) for free
    jsonutility.o(.text) refers to ports.o(.text) for initPorts
    jsonutility.o(.text) refers to vlan.o(.text) for initFirstVlan
    jsonutility.o(.text) refers to mac_link.o(.text) for initRoot
    jsonutility.o(.text) refers to board_info.o(.text) for initSerialInfo
    jsonutility.o(.text) refers to serialserver.o(.text) for initDefaultSerialPort
    jsonutility.o(.text) refers to veth_mac.o(.text) for Flush_MAC_entry
    jsonutility.o(.text) refers to vlan_link.o(.text) for emptyVlanLink
    jsonutility.o(.text) refers to cjson.o(.text) for cJSON_Parse
    jsonutility.o(.text) refers to memseta.o(.text) for __aeabi_memclr4
    jsonutility.o(.text) refers to strcpy.o(.text) for strcpy
    jsonutility.o(.text) refers to mac.o(.text) for getDivideMacAddress
    jsonutility.o(.text) refers to d2f.o(.text) for __aeabi_d2f
    jsonutility.o(.text) refers to web_main.o(.data) for isFirstRequest
    jsonutility.o(.text) refers to mac_link.o(.data) for mac_root
    jsonutility.o(.text) refers to vlan_link.o(.data) for vlan_root
    jsonutility.o(.text) refers to dfltui.o(.text) for __aeabi_ui2d
    jsonutility.o(.text) refers to dflti.o(.text) for __aeabi_i2d
    jsonutility.o(.text) refers to board_info.o(.data) for ports_num
    jsonutility.o(.text) refers to f2d.o(.text) for __aeabi_f2d
    jsonutility.o(.text) refers to strlen.o(.text) for strlen
    jsonutility.o(.text) refers to malloc.o(i.malloc) for malloc
    jsonutility.o(.text) refers to printfa.o(i.__0printf) for __2printf
    jsonutility.o(.text) refers to malloc.o(i.free) for free
    jsonutility.o(.text) refers to jsonutility.o(.data) for final_JSON_result
    jsonutility.o(.data) refers to jsonutility.o(.conststring) for .conststring
    upload_file.o(.text) refers to strstr.o(.text) for strstr
    upload_file.o(.text) refers to strchr.o(.text) for strchr
    upload_file.o(.text) refers to malloc.o(i.malloc) for malloc
    upload_file.o(.text) refers to memseta.o(.text) for __aeabi_memclr
    upload_file.o(.text) refers to strncpy.o(.text) for strncpy
    upload_file.o(.text) refers to request.o(.text) for getHttpFormStartLocation
    upload_file.o(.text) refers to findsubstring.o(.text) for findSubstring
    upload_file.o(.text) refers to printfa.o(i.__0printf) for __2printf
    upload_file.o(.text) refers to memcpya.o(.text) for __aeabi_memcpy
    upload_file.o(.text) refers to system_maintain.o(.data) for url_buf_length
    upload_file.o(.text) refers to upload_file.o(.data) for http_header_length
    upload_file.o(.data) refers to upload_file.o(.conststring) for .conststring
    findsubstring.o(.text) refers to strlen.o(.text) for strlen
    findsubstring.o(.text) refers to malloc.o(i.malloc) for malloc
    findsubstring.o(.text) refers to malloc.o(i.free) for free
    stringhashtable.o(.text) refers to malloc.o(i.malloc) for malloc
    stringhashtable.o(.text) refers to printfa.o(i.__0printf) for __2printf
    stringhashtable.o(.text) refers to strlen.o(.text) for strlen
    stringhashtable.o(.text) refers to strcpy.o(.text) for strcpy
    stringhashtable.o(.text) refers to strcmp.o(.text) for strcmp
    stringhashtable.o(.text) refers to malloc.o(i.free) for free
    stringhashtable.o(.text) refers to stringhashtable.o(.bss) for string_hash
    loginfo.o(.text) refers to malloc.o(i.free) for free
    loginfo.o(.text) refers to strlen.o(.text) for strlen
    loginfo.o(.text) refers to loginfo.o(.data) for log_num
    loginfo.o(.data) refers to loginfo.o(.conststring) for .conststring
    logutility.o(.text) refers to localtime.o(.text) for localtime
    logutility.o(.text) refers to system_info.o(.text) for getTimeWday
    logutility.o(.text) refers to malloc.o(i.malloc) for malloc
    logutility.o(.text) refers to printfa.o(i.__0printf) for __2printf
    logutility.o(.text) refers to strlen.o(.text) for strlen
    logutility.o(.text) refers to memseta.o(.text) for __aeabi_memclr
    logutility.o(.text) refers to strcpy.o(.text) for strcpy
    logutility.o(.text) refers to malloc.o(i.free) for free
    logutility.o(.text) refers to loginfo.o(.text) for freeLogSystemMemory
    logutility.o(.text) refers to printfa.o(i.__0sprintf) for __2sprintf
    logutility.o(.text) refers to strcat.o(.text) for strcat
    logutility.o(.text) refers to system_info.o(.bss) for system_time
    logutility.o(.text) refers to loginfo.o(.data) for log_num
    logutility.o(.text) refers to logutility.o(.bss) for all_data
    logutility.o(.data) refers to logutility.o(.conststring) for .conststring
    session.o(.text) refers to strlen.o(.text) for strlen
    session.o(.text) refers to utility.o(.text) for integerLength
    session.o(.text) refers to malloc.o(i.malloc) for malloc
    session.o(.text) refers to printfa.o(i.__0sprintf) for __2sprintf
    session.o(.text) refers to stringhashtable.o(.text) for putStringHashValue
    session.o(.text) refers to strcpy.o(.text) for strcpy
    session.o(.text) refers to malloc.o(i.free) for free
    session.o(.text) refers to strcmp.o(.text) for strcmp
    session.o(.text) refers to httpd.o(.data) for current_http_connection
    session.o(.text) refers to veth_hal_init.o(.data) for sCount
    session.o(.text) refers to session.o(.data) for session_root
    session.o(.data) refers to session.o(.conststring) for .conststring
    serialqueue.o(.text) refers to malloc.o(i.malloc) for malloc
    serialqueue.o(.text) refers to printfa.o(i.__0printf) for __2printf
    serialqueue.o(.text) refers to memseta.o(.text) for __aeabi_memclr
    serialqueue.o(.text) refers to memcpya.o(.text) for __aeabi_memcpy
    serialqueue.o(.text) refers to malloc.o(i.free) for free
    serialqueue.o(.text) refers to serialutility.o(.bss) for serial_use_memory
    serialqueue.o(.data) refers to serialqueue.o(.conststring) for .conststring
    serialutility.o(.text) refers to memseta.o(.text) for __aeabi_memclr4
    serialutility.o(.text) refers to malloc.o(i.malloc) for malloc
    serialutility.o(.text) refers to printfa.o(i.__0printf) for __2printf
    serialutility.o(.text) refers to memcpya.o(.text) for __aeabi_memcpy
    serialutility.o(.text) refers to serialqueue.o(.text) for addQueueNode
    serialutility.o(.text) refers to malloc.o(i.free) for free
    serialutility.o(.text) refers to serialqueue.o(.bss) for server_array_queue
    serialutility.o(.text) refers to serialutility.o(.bss) for serial_use_memory
    serialutility.o(.text) refers to serialutility.o(.data) for server_queue_all_length
    serialutility.o(.text) refers to def.o(.text) for lwip_ntohs
    serialutility.o(.text) refers to printfa.o(i.__0sprintf) for __2sprintf
    serialutility.o(.text) refers to strcat.o(.text) for strcat
    serialutility.o(.text) refers to f2d.o(.text) for __aeabi_f2d
    serialutility.o(.text) refers to strlen.o(.text) for strlen
    serialutility.o(.text) refers to tcp.o(.text) for tcp_close
    serialutility.o(.text) refers to strcmp.o(.text) for strcmp
    serialutility.o(.text) refers to strcpy.o(.text) for strcpy
    serialutility.o(.text) refers to logutility.o(.text) for addLogEntry
    serialutility.o(.text) refers to veth_com.o(.text) for setChipMode
    serialutility.o(.text) refers to web_main.o(.data) for board
    serialutility.o(.text) refers to serialclient.o(.bss) for serial_client
    serialutility.o(.text) refers to serialserver.o(.text) for deleteSerialServerListen
    serialutility.o(.text) refers to serialserverudp.o(.text) for unlistenUdpSerialPort
    serialutility.o(.text) refers to request.o(.text) for getHttpFormStartLocation
    serialutility.o(.text) refers to atoi.o(.text) for atoi
    serialutility.o(.text) refers to atof.o(i.__hardfp_atof) for __hardfp_atof
    serialutility.o(.text) refers to d2f.o(.text) for __aeabi_d2f
    serialutility.o(.text) refers to ip_config.o(.text) for getFormatAddress
    serialutility.o(.text) refers to netif.o(.bss) for veth_netif
    serialutility.o(.data) refers to serialutility.o(.conststring) for .conststring
    serialclient.o(.text) refers to malloc.o(i.malloc) for malloc
    serialclient.o(.text) refers to printfa.o(i.__0printf) for __2printf
    serialclient.o(.text) refers to serialutility.o(.text) for readClientQueueToBuf
    serialclient.o(.text) refers to tcp_out.o(.text) for tcp_write
    serialclient.o(.text) refers to malloc.o(i.free) for free
    serialclient.o(.text) refers to tcp.o(.text) for tcp_recved
    serialclient.o(.text) refers to pbuf.o(.text) for pbuf_free
    serialclient.o(.text) refers to memseta.o(.text) for __aeabi_memclr
    serialclient.o(.text) refers to memcpya.o(.text) for __aeabi_memcpy
    serialclient.o(.text) refers to ip.o(.text) for ip_route
    serialclient.o(.text) refers to strcpy.o(.text) for strcpy
    serialclient.o(.text) refers to ip_config.o(.text) for getFormatAddress
    serialclient.o(.text) refers to serialclient.o(.bss) for serial_client
    serialclient.o(.text) refers to tcp.o(.constdata) for tcp_pcb_lists
    serialclient.o(.text) refers to ip_addr.o(.constdata) for ip_addr_any
    serialclient.o(.data) refers to serialclient.o(.conststring) for .conststring
    serialclientudp.o(.text) refers to pbuf.o(.text) for pbuf_alloc
    serialclientudp.o(.text) refers to printfa.o(i.__0printf) for __2printf
    serialclientudp.o(.text) refers to memseta.o(.text) for __aeabi_memclr
    serialclientudp.o(.text) refers to memcpya.o(.text) for __aeabi_memcpy
    serialclientudp.o(.text) refers to udp.o(.text) for udp_send
    serialclientudp.o(.text) refers to malloc.o(i.free) for free
    serialclientudp.o(.text) refers to ip_config.o(.text) for getFormatAddress
    serialclientudp.o(.text) refers to serialclient.o(.text) for generateSerialClientSendData
    serialclientudp.o(.text) refers to serialclient.o(.bss) for serial_client
    serialclientudp.o(.text) refers to ip_addr.o(.constdata) for ip_addr_any
    serialclientudp.o(.data) refers to serialclientudp.o(.conststring) for .conststring
    serialserver.o(.text) refers to printfa.o(i.__0printf) for __2printf
    serialserver.o(.text) refers to tcp.o(.text) for tcp_recved
    serialserver.o(.text) refers to pbuf.o(.text) for pbuf_free
    serialserver.o(.text) refers to malloc.o(i.malloc) for malloc
    serialserver.o(.text) refers to memseta.o(.text) for __aeabi_memclr
    serialserver.o(.text) refers to memcpya.o(.text) for __aeabi_memcpy
    serialserver.o(.text) refers to serialutility.o(.text) for addDataToServerQueue
    serialserver.o(.text) refers to malloc.o(i.free) for free
    serialserver.o(.text) refers to printfa.o(i.__0fprintf) for __2fprintf
    serialserver.o(.text) refers to serialserverudp.o(.text) for addUdpSerialListenPort
    serialserver.o(.text) refers to web_main.o(.data) for board
    serialserver.o(.text) refers to serialserver.o(.bss) for recv_total_data
    serialserver.o(.text) refers to stderr.o(.data) for __stderr
    serialserver.o(.text) refers to tcp.o(.constdata) for tcp_pcb_lists
    serialserver.o(.text) refers to ip_addr.o(.constdata) for ip_addr_any
    serialserver.o(.data) refers to serialserver.o(.conststring) for .conststring
    serialserverudp.o(.text) refers to printfa.o(i.__0printf) for __2printf
    serialserverudp.o(.text) refers to malloc.o(i.malloc) for malloc
    serialserverudp.o(.text) refers to memseta.o(.text) for __aeabi_memclr
    serialserverudp.o(.text) refers to memcpya.o(.text) for __aeabi_memcpy
    serialserverudp.o(.text) refers to pbuf.o(.text) for pbuf_free
    serialserverudp.o(.text) refers to serialutility.o(.text) for addDataToServerQueue
    serialserverudp.o(.text) refers to malloc.o(i.free) for free
    serialserverudp.o(.text) refers to udp.o(.text) for udp_new
    serialserverudp.o(.text) refers to web_main.o(.data) for board
    serialserverudp.o(.text) refers to serialserverudp.o(.bss) for udp_serv_recv
    serialserverudp.o(.text) refers to ip_addr.o(.constdata) for ip_addr_any
    serialserverudp.o(.text) refers to udp.o(.data) for udp_pcbs
    serialserverudp.o(.data) refers to serialserverudp.o(.conststring) for .conststring
    multicastutility.o(.text) refers to printfa.o(i.__0printf) for __2printf
    multicastutility.o(.text) refers to udp.o(.text) for udp_new
    multicastutility.o(.text) refers to igmp.o(.text) for igmp_joingroup
    multicastutility.o(.text) refers to pbuf.o(.text) for pbuf_alloc
    multicastutility.o(.text) refers to memseta.o(.text) for __aeabi_memclr
    multicastutility.o(.text) refers to memcpya.o(.text) for __aeabi_memcpy
    multicastutility.o(.text) refers to ip_addr.o(.constdata) for ip_addr_any
    multicastutility.o(.text) refers to netif.o(.bss) for veth_netif
    multicastutility.o(.text) refers to multicastutility.o(.data) for multicast_client_udp
    multicastutility.o(.data) refers to multicastutility.o(.conststring) for .conststring
    atof.o(i.__hardfp_atof) refers (Special) to iusefp.o(.text) for __I$use$fp
    atof.o(i.__hardfp_atof) refers to errno.o(i.__read_errno) for __read_errno
    atof.o(i.__hardfp_atof) refers to strtod.o(.text) for __strtod_int
    atof.o(i.__hardfp_atof) refers to errno.o(i.__set_errno) for __set_errno
    atof.o(i.__softfp_atof) refers (Special) to iusefp.o(.text) for __I$use$fp
    atof.o(i.__softfp_atof) refers to errno.o(i.__read_errno) for __read_errno
    atof.o(i.__softfp_atof) refers to strtod.o(.text) for __strtod_int
    atof.o(i.__softfp_atof) refers to errno.o(i.__set_errno) for __set_errno
    atof.o(i.atof) refers (Special) to iusefp.o(.text) for __I$use$fp
    atof.o(i.atof) refers to errno.o(i.__read_errno) for __read_errno
    atof.o(i.atof) refers to strtod.o(.text) for __strtod_int
    atof.o(i.atof) refers to errno.o(i.__set_errno) for __set_errno
    fabs.o(i.__hardfp_fabs) refers (Special) to iusefp.o(.text) for __I$use$fp
    fabs.o(i.__softfp_fabs) refers (Special) to iusefp.o(.text) for __I$use$fp
    fabs.o(i.fabs) refers (Special) to iusefp.o(.text) for __I$use$fp
    floor.o(i.__hardfp_floor) refers (Special) to iusefp.o(.text) for __I$use$fp
    floor.o(i.__hardfp_floor) refers to dadd.o(.text) for __aeabi_dadd
    floor.o(i.__hardfp_floor) refers to cdrcmple.o(.text) for __aeabi_cdrcmple
    floor.o(i.__softfp_floor) refers (Special) to iusefp.o(.text) for __I$use$fp
    floor.o(i.__softfp_floor) refers to floor.o(i.__hardfp_floor) for __hardfp_floor
    floor.o(i.floor) refers (Special) to iusefp.o(.text) for __I$use$fp
    floor.o(i.floor) refers to floor.o(i.__hardfp_floor) for __hardfp_floor
    pow.o(i.__hardfp_pow) refers (Special) to iusefp.o(.text) for __I$use$fp
    pow.o(i.__hardfp_pow) refers to dadd.o(.text) for __aeabi_dadd
    pow.o(i.__hardfp_pow) refers to errno.o(i.__set_errno) for __set_errno
    pow.o(i.__hardfp_pow) refers to dmul.o(.text) for __aeabi_dmul
    pow.o(i.__hardfp_pow) refers to ddiv.o(.text) for __aeabi_ddiv
    pow.o(i.__hardfp_pow) refers to sqrt.o(i.sqrt) for sqrt
    pow.o(i.__hardfp_pow) refers to fabs.o(i.fabs) for fabs
    pow.o(i.__hardfp_pow) refers to dunder.o(i.__mathlib_dbl_underflow) for __mathlib_dbl_underflow
    pow.o(i.__hardfp_pow) refers to qnan.o(.constdata) for __mathlib_zero
    pow.o(i.__hardfp_pow) refers to poly.o(i.__kernel_poly) for __kernel_poly
    pow.o(i.__hardfp_pow) refers to dflti.o(.text) for __aeabi_i2d
    pow.o(i.__hardfp_pow) refers to pow.o(.constdata) for .constdata
    pow.o(i.__hardfp_pow) refers to cdrcmple.o(.text) for __aeabi_cdrcmple
    pow.o(i.__hardfp_pow) refers to dscalb.o(.text) for __ARM_scalbn
    pow.o(i.__hardfp_pow) refers to fpclassify.o(i.__ARM_fpclassify) for __ARM_fpclassify
    pow.o(i.__softfp_pow) refers (Special) to iusefp.o(.text) for __I$use$fp
    pow.o(i.__softfp_pow) refers to pow.o(i.__hardfp_pow) for __hardfp_pow
    pow.o(i.pow) refers (Special) to iusefp.o(.text) for __I$use$fp
    pow.o(i.pow) refers to pow.o(i.__hardfp_pow) for __hardfp_pow
    pow.o(.constdata) refers (Special) to iusefp.o(.text) for __I$use$fp
    pow_x.o(i.____hardfp_pow$lsc) refers (Special) to iusefp.o(.text) for __I$use$fp
    pow_x.o(i.____hardfp_pow$lsc) refers to dadd.o(.text) for __aeabi_dadd
    pow_x.o(i.____hardfp_pow$lsc) refers to errno.o(i.__set_errno) for __set_errno
    pow_x.o(i.____hardfp_pow$lsc) refers to ddiv.o(.text) for __aeabi_ddiv
    pow_x.o(i.____hardfp_pow$lsc) refers to sqrt.o(i.sqrt) for sqrt
    pow_x.o(i.____hardfp_pow$lsc) refers to fabs.o(i.fabs) for fabs
    pow_x.o(i.____hardfp_pow$lsc) refers to dflti.o(.text) for __aeabi_i2d
    pow_x.o(i.____hardfp_pow$lsc) refers to dmul.o(.text) for __aeabi_dmul
    pow_x.o(i.____hardfp_pow$lsc) refers to qnan.o(.constdata) for __mathlib_zero
    pow_x.o(i.____hardfp_pow$lsc) refers to poly.o(i.__kernel_poly) for __kernel_poly
    pow_x.o(i.____hardfp_pow$lsc) refers to pow_x.o(.constdata) for .constdata
    pow_x.o(i.____hardfp_pow$lsc) refers to cdrcmple.o(.text) for __aeabi_cdrcmple
    pow_x.o(i.____hardfp_pow$lsc) refers to dscalb.o(.text) for __ARM_scalbn
    pow_x.o(i.____softfp_pow$lsc) refers (Special) to iusefp.o(.text) for __I$use$fp
    pow_x.o(i.____softfp_pow$lsc) refers to pow_x.o(i.____hardfp_pow$lsc) for ____hardfp_pow$lsc
    pow_x.o(i.__pow$lsc) refers (Special) to iusefp.o(.text) for __I$use$fp
    pow_x.o(i.__pow$lsc) refers to pow_x.o(i.____hardfp_pow$lsc) for ____hardfp_pow$lsc
    pow_x.o(.constdata) refers (Special) to iusefp.o(.text) for __I$use$fp
    entry.o(.ARM.Collect$$$$00000000) refers (Special) to entry10a.o(.ARM.Collect$$$$0000000D) for __rt_final_cpp
    entry.o(.ARM.Collect$$$$00000000) refers (Special) to entry11a.o(.ARM.Collect$$$$0000000F) for __rt_final_exit
    entry.o(.ARM.Collect$$$$00000000) refers (Special) to entry7b.o(.ARM.Collect$$$$00000008) for _main_clock
    entry.o(.ARM.Collect$$$$00000000) refers (Special) to entry8b.o(.ARM.Collect$$$$0000000A) for _main_cpp_init
    entry.o(.ARM.Collect$$$$00000000) refers (Special) to entry9a.o(.ARM.Collect$$$$0000000B) for _main_init
    entry.o(.ARM.Collect$$$$00000000) refers (Special) to entry5.o(.ARM.Collect$$$$00000004) for _main_scatterload
    entry.o(.ARM.Collect$$$$00000000) refers (Special) to entry2.o(.ARM.Collect$$$$00000001) for _main_stk
    ctype_o.o(.text) refers to ctype_o.o(.constdata) for .constdata
    ctype_o.o(.constdata) refers to ctype_o.o(.constdata) for __ctype_table
    isalnum_o.o(.text) refers to ctype_o.o(.text) for __rt_ctype_table
    isalpha_o.o(.text) refers to ctype_o.o(.text) for __rt_ctype_table
    isblank_o.o(.text) refers to ctype_o.o(.constdata) for __ctype_table
    iscntrl_o.o(.text) refers to ctype_o.o(.text) for __rt_ctype_table
    isdigit_o.o(.text) refers to ctype_o.o(.text) for __rt_ctype_table
    isgraph_o.o(.text) refers to ctype_o.o(.text) for __rt_ctype_table
    islower_o.o(.text) refers to ctype_o.o(.text) for __rt_ctype_table
    isprint_o.o(.text) refers to ctype_o.o(.text) for __rt_ctype_table
    ispunct_o.o(.text) refers to ctype_o.o(.text) for __rt_ctype_table
    isspace_o.o(.text) refers to ctype_o.o(.text) for __rt_ctype_table
    isupper_o.o(.text) refers to ctype_o.o(.text) for __rt_ctype_table
    isxdigit_o.o(.text) refers to ctype_o.o(.text) for __rt_ctype_table
    rand.o(.text) refers to rand.o(.data) for .data
    localtime.o(.text) refers to localtime.o(.bss) for .bss
    localtime.o(.text) refers to localtime.o(.constdata) for .constdata
    strtok.o(.text) refers to strtok.o(.data) for .data
    strtok_r.o(.text) refers to strtok_r.o(.data) for .data
    printfb.o(i.__0fprintf$bare) refers to printfb.o(i._printf_core) for _printf_core
    printfb.o(i.__0fprintf$bare) refers to main.o(.text) for fputc
    printfb.o(i.__0printf$bare) refers to printfb.o(i._printf_core) for _printf_core
    printfb.o(i.__0printf$bare) refers to main.o(.text) for fputc
    printfb.o(i.__0printf$bare) refers to stdout.o(.data) for __stdout
    printfb.o(i.__0snprintf$bare) refers to printfb.o(i._printf_core) for _printf_core
    printfb.o(i.__0snprintf$bare) refers to printfb.o(i._snputc) for _snputc
    printfb.o(i.__0sprintf$bare) refers to printfb.o(i._printf_core) for _printf_core
    printfb.o(i.__0sprintf$bare) refers to printfb.o(i._sputc) for _sputc
    printfb.o(i.__0vfprintf$bare) refers to printfb.o(i._printf_core) for _printf_core
    printfb.o(i.__0vfprintf$bare) refers to main.o(.text) for fputc
    printfb.o(i.__0vprintf$bare) refers to printfb.o(i._printf_core) for _printf_core
    printfb.o(i.__0vprintf$bare) refers to main.o(.text) for fputc
    printfb.o(i.__0vprintf$bare) refers to stdout.o(.data) for __stdout
    printfb.o(i.__0vsnprintf$bare) refers to printfb.o(i._printf_core) for _printf_core
    printfb.o(i.__0vsnprintf$bare) refers to printfb.o(i._snputc) for _snputc
    printfb.o(i.__0vsprintf$bare) refers to printfb.o(i._printf_core) for _printf_core
    printfb.o(i.__0vsprintf$bare) refers to printfb.o(i._sputc) for _sputc
    printf0.o(i.__0fprintf$0) refers to printf0.o(i._printf_core) for _printf_core
    printf0.o(i.__0fprintf$0) refers to main.o(.text) for fputc
    printf0.o(i.__0printf$0) refers to printf0.o(i._printf_core) for _printf_core
    printf0.o(i.__0printf$0) refers to main.o(.text) for fputc
    printf0.o(i.__0printf$0) refers to stdout.o(.data) for __stdout
    printf0.o(i.__0snprintf$0) refers to printf0.o(i._printf_core) for _printf_core
    printf0.o(i.__0snprintf$0) refers to printf0.o(i._snputc) for _snputc
    printf0.o(i.__0sprintf$0) refers to printf0.o(i._printf_core) for _printf_core
    printf0.o(i.__0sprintf$0) refers to printf0.o(i._sputc) for _sputc
    printf0.o(i.__0vfprintf$0) refers to printf0.o(i._printf_core) for _printf_core
    printf0.o(i.__0vfprintf$0) refers to main.o(.text) for fputc
    printf0.o(i.__0vprintf$0) refers to printf0.o(i._printf_core) for _printf_core
    printf0.o(i.__0vprintf$0) refers to main.o(.text) for fputc
    printf0.o(i.__0vprintf$0) refers to stdout.o(.data) for __stdout
    printf0.o(i.__0vsnprintf$0) refers to printf0.o(i._printf_core) for _printf_core
    printf0.o(i.__0vsnprintf$0) refers to printf0.o(i._snputc) for _snputc
    printf0.o(i.__0vsprintf$0) refers to printf0.o(i._printf_core) for _printf_core
    printf0.o(i.__0vsprintf$0) refers to printf0.o(i._sputc) for _sputc
    printf1.o(i.__0fprintf$1) refers to printf1.o(i._printf_core) for _printf_core
    printf1.o(i.__0fprintf$1) refers to main.o(.text) for fputc
    printf1.o(i.__0printf$1) refers to printf1.o(i._printf_core) for _printf_core
    printf1.o(i.__0printf$1) refers to main.o(.text) for fputc
    printf1.o(i.__0printf$1) refers to stdout.o(.data) for __stdout
    printf1.o(i.__0snprintf$1) refers to printf1.o(i._printf_core) for _printf_core
    printf1.o(i.__0snprintf$1) refers to printf1.o(i._snputc) for _snputc
    printf1.o(i.__0sprintf$1) refers to printf1.o(i._printf_core) for _printf_core
    printf1.o(i.__0sprintf$1) refers to printf1.o(i._sputc) for _sputc
    printf1.o(i.__0vfprintf$1) refers to printf1.o(i._printf_core) for _printf_core
    printf1.o(i.__0vfprintf$1) refers to main.o(.text) for fputc
    printf1.o(i.__0vprintf$1) refers to printf1.o(i._printf_core) for _printf_core
    printf1.o(i.__0vprintf$1) refers to main.o(.text) for fputc
    printf1.o(i.__0vprintf$1) refers to stdout.o(.data) for __stdout
    printf1.o(i.__0vsnprintf$1) refers to printf1.o(i._printf_core) for _printf_core
    printf1.o(i.__0vsnprintf$1) refers to printf1.o(i._snputc) for _snputc
    printf1.o(i.__0vsprintf$1) refers to printf1.o(i._printf_core) for _printf_core
    printf1.o(i.__0vsprintf$1) refers to printf1.o(i._sputc) for _sputc
    printf1.o(i._printf_core) refers to uidiv.o(.text) for __aeabi_uidivmod
    printf2.o(i.__0fprintf$2) refers to printf2.o(i._printf_core) for _printf_core
    printf2.o(i.__0fprintf$2) refers to main.o(.text) for fputc
    printf2.o(i.__0printf$2) refers to printf2.o(i._printf_core) for _printf_core
    printf2.o(i.__0printf$2) refers to main.o(.text) for fputc
    printf2.o(i.__0printf$2) refers to stdout.o(.data) for __stdout
    printf2.o(i.__0snprintf$2) refers to printf2.o(i._printf_core) for _printf_core
    printf2.o(i.__0snprintf$2) refers to printf2.o(i._snputc) for _snputc
    printf2.o(i.__0sprintf$2) refers to printf2.o(i._printf_core) for _printf_core
    printf2.o(i.__0sprintf$2) refers to printf2.o(i._sputc) for _sputc
    printf2.o(i.__0vfprintf$2) refers to printf2.o(i._printf_core) for _printf_core
    printf2.o(i.__0vfprintf$2) refers to main.o(.text) for fputc
    printf2.o(i.__0vprintf$2) refers to printf2.o(i._printf_core) for _printf_core
    printf2.o(i.__0vprintf$2) refers to main.o(.text) for fputc
    printf2.o(i.__0vprintf$2) refers to stdout.o(.data) for __stdout
    printf2.o(i.__0vsnprintf$2) refers to printf2.o(i._printf_core) for _printf_core
    printf2.o(i.__0vsnprintf$2) refers to printf2.o(i._snputc) for _snputc
    printf2.o(i.__0vsprintf$2) refers to printf2.o(i._printf_core) for _printf_core
    printf2.o(i.__0vsprintf$2) refers to printf2.o(i._sputc) for _sputc
    printf3.o(i.__0fprintf$3) refers to printf3.o(i._printf_core) for _printf_core
    printf3.o(i.__0fprintf$3) refers to main.o(.text) for fputc
    printf3.o(i.__0printf$3) refers to printf3.o(i._printf_core) for _printf_core
    printf3.o(i.__0printf$3) refers to main.o(.text) for fputc
    printf3.o(i.__0printf$3) refers to stdout.o(.data) for __stdout
    printf3.o(i.__0snprintf$3) refers to printf3.o(i._printf_core) for _printf_core
    printf3.o(i.__0snprintf$3) refers to printf3.o(i._snputc) for _snputc
    printf3.o(i.__0sprintf$3) refers to printf3.o(i._printf_core) for _printf_core
    printf3.o(i.__0sprintf$3) refers to printf3.o(i._sputc) for _sputc
    printf3.o(i.__0vfprintf$3) refers to printf3.o(i._printf_core) for _printf_core
    printf3.o(i.__0vfprintf$3) refers to main.o(.text) for fputc
    printf3.o(i.__0vprintf$3) refers to printf3.o(i._printf_core) for _printf_core
    printf3.o(i.__0vprintf$3) refers to main.o(.text) for fputc
    printf3.o(i.__0vprintf$3) refers to stdout.o(.data) for __stdout
    printf3.o(i.__0vsnprintf$3) refers to printf3.o(i._printf_core) for _printf_core
    printf3.o(i.__0vsnprintf$3) refers to printf3.o(i._snputc) for _snputc
    printf3.o(i.__0vsprintf$3) refers to printf3.o(i._printf_core) for _printf_core
    printf3.o(i.__0vsprintf$3) refers to printf3.o(i._sputc) for _sputc
    printf3.o(i._printf_core) refers to uidiv.o(.text) for __aeabi_uidivmod
    printf4.o(i.__0fprintf$4) refers to printf4.o(i._printf_core) for _printf_core
    printf4.o(i.__0fprintf$4) refers to main.o(.text) for fputc
    printf4.o(i.__0printf$4) refers to printf4.o(i._printf_core) for _printf_core
    printf4.o(i.__0printf$4) refers to main.o(.text) for fputc
    printf4.o(i.__0printf$4) refers to stdout.o(.data) for __stdout
    printf4.o(i.__0snprintf$4) refers to printf4.o(i._printf_core) for _printf_core
    printf4.o(i.__0snprintf$4) refers to printf4.o(i._snputc) for _snputc
    printf4.o(i.__0sprintf$4) refers to printf4.o(i._printf_core) for _printf_core
    printf4.o(i.__0sprintf$4) refers to printf4.o(i._sputc) for _sputc
    printf4.o(i.__0vfprintf$4) refers to printf4.o(i._printf_core) for _printf_core
    printf4.o(i.__0vfprintf$4) refers to main.o(.text) for fputc
    printf4.o(i.__0vprintf$4) refers to printf4.o(i._printf_core) for _printf_core
    printf4.o(i.__0vprintf$4) refers to main.o(.text) for fputc
    printf4.o(i.__0vprintf$4) refers to stdout.o(.data) for __stdout
    printf4.o(i.__0vsnprintf$4) refers to printf4.o(i._printf_core) for _printf_core
    printf4.o(i.__0vsnprintf$4) refers to printf4.o(i._snputc) for _snputc
    printf4.o(i.__0vsprintf$4) refers to printf4.o(i._printf_core) for _printf_core
    printf4.o(i.__0vsprintf$4) refers to printf4.o(i._sputc) for _sputc
    printf4.o(i._printf_core) refers to uldiv.o(.text) for __aeabi_uldivmod
    printf5.o(i.__0fprintf$5) refers to printf5.o(i._printf_core) for _printf_core
    printf5.o(i.__0fprintf$5) refers to main.o(.text) for fputc
    printf5.o(i.__0printf$5) refers to printf5.o(i._printf_core) for _printf_core
    printf5.o(i.__0printf$5) refers to main.o(.text) for fputc
    printf5.o(i.__0printf$5) refers to stdout.o(.data) for __stdout
    printf5.o(i.__0snprintf$5) refers to printf5.o(i._printf_core) for _printf_core
    printf5.o(i.__0snprintf$5) refers to printf5.o(i._snputc) for _snputc
    printf5.o(i.__0sprintf$5) refers to printf5.o(i._printf_core) for _printf_core
    printf5.o(i.__0sprintf$5) refers to printf5.o(i._sputc) for _sputc
    printf5.o(i.__0vfprintf$5) refers to printf5.o(i._printf_core) for _printf_core
    printf5.o(i.__0vfprintf$5) refers to main.o(.text) for fputc
    printf5.o(i.__0vprintf$5) refers to printf5.o(i._printf_core) for _printf_core
    printf5.o(i.__0vprintf$5) refers to main.o(.text) for fputc
    printf5.o(i.__0vprintf$5) refers to stdout.o(.data) for __stdout
    printf5.o(i.__0vsnprintf$5) refers to printf5.o(i._printf_core) for _printf_core
    printf5.o(i.__0vsnprintf$5) refers to printf5.o(i._snputc) for _snputc
    printf5.o(i.__0vsprintf$5) refers to printf5.o(i._printf_core) for _printf_core
    printf5.o(i.__0vsprintf$5) refers to printf5.o(i._sputc) for _sputc
    printf5.o(i._printf_core) refers to uldiv.o(.text) for __aeabi_uldivmod
    printf6.o(i.__0fprintf$6) refers to printf6.o(i._printf_core) for _printf_core
    printf6.o(i.__0fprintf$6) refers to main.o(.text) for fputc
    printf6.o(i.__0printf$6) refers to printf6.o(i._printf_core) for _printf_core
    printf6.o(i.__0printf$6) refers to main.o(.text) for fputc
    printf6.o(i.__0printf$6) refers to stdout.o(.data) for __stdout
    printf6.o(i.__0snprintf$6) refers to printf6.o(i._printf_core) for _printf_core
    printf6.o(i.__0snprintf$6) refers to printf6.o(i._snputc) for _snputc
    printf6.o(i.__0sprintf$6) refers to printf6.o(i._printf_core) for _printf_core
    printf6.o(i.__0sprintf$6) refers to printf6.o(i._sputc) for _sputc
    printf6.o(i.__0vfprintf$6) refers to printf6.o(i._printf_core) for _printf_core
    printf6.o(i.__0vfprintf$6) refers to main.o(.text) for fputc
    printf6.o(i.__0vprintf$6) refers to printf6.o(i._printf_core) for _printf_core
    printf6.o(i.__0vprintf$6) refers to main.o(.text) for fputc
    printf6.o(i.__0vprintf$6) refers to stdout.o(.data) for __stdout
    printf6.o(i.__0vsnprintf$6) refers to printf6.o(i._printf_core) for _printf_core
    printf6.o(i.__0vsnprintf$6) refers to printf6.o(i._snputc) for _snputc
    printf6.o(i.__0vsprintf$6) refers to printf6.o(i._printf_core) for _printf_core
    printf6.o(i.__0vsprintf$6) refers to printf6.o(i._sputc) for _sputc
    printf6.o(i._printf_core) refers to printf6.o(i._printf_pre_padding) for _printf_pre_padding
    printf6.o(i._printf_core) refers to uidiv.o(.text) for __aeabi_uidivmod
    printf6.o(i._printf_core) refers to printf6.o(i._printf_post_padding) for _printf_post_padding
    printf7.o(i.__0fprintf$7) refers to printf7.o(i._printf_core) for _printf_core
    printf7.o(i.__0fprintf$7) refers to main.o(.text) for fputc
    printf7.o(i.__0printf$7) refers to printf7.o(i._printf_core) for _printf_core
    printf7.o(i.__0printf$7) refers to main.o(.text) for fputc
    printf7.o(i.__0printf$7) refers to stdout.o(.data) for __stdout
    printf7.o(i.__0snprintf$7) refers to printf7.o(i._printf_core) for _printf_core
    printf7.o(i.__0snprintf$7) refers to printf7.o(i._snputc) for _snputc
    printf7.o(i.__0sprintf$7) refers to printf7.o(i._printf_core) for _printf_core
    printf7.o(i.__0sprintf$7) refers to printf7.o(i._sputc) for _sputc
    printf7.o(i.__0vfprintf$7) refers to printf7.o(i._printf_core) for _printf_core
    printf7.o(i.__0vfprintf$7) refers to main.o(.text) for fputc
    printf7.o(i.__0vprintf$7) refers to printf7.o(i._printf_core) for _printf_core
    printf7.o(i.__0vprintf$7) refers to main.o(.text) for fputc
    printf7.o(i.__0vprintf$7) refers to stdout.o(.data) for __stdout
    printf7.o(i.__0vsnprintf$7) refers to printf7.o(i._printf_core) for _printf_core
    printf7.o(i.__0vsnprintf$7) refers to printf7.o(i._snputc) for _snputc
    printf7.o(i.__0vsprintf$7) refers to printf7.o(i._printf_core) for _printf_core
    printf7.o(i.__0vsprintf$7) refers to printf7.o(i._sputc) for _sputc
    printf7.o(i._printf_core) refers to printf7.o(i._printf_pre_padding) for _printf_pre_padding
    printf7.o(i._printf_core) refers to uldiv.o(.text) for __aeabi_uldivmod
    printf7.o(i._printf_core) refers to printf7.o(i._printf_post_padding) for _printf_post_padding
    printf8.o(i.__0fprintf$8) refers to printf8.o(i._printf_core) for _printf_core
    printf8.o(i.__0fprintf$8) refers to main.o(.text) for fputc
    printf8.o(i.__0printf$8) refers to printf8.o(i._printf_core) for _printf_core
    printf8.o(i.__0printf$8) refers to main.o(.text) for fputc
    printf8.o(i.__0printf$8) refers to stdout.o(.data) for __stdout
    printf8.o(i.__0snprintf$8) refers to printf8.o(i._printf_core) for _printf_core
    printf8.o(i.__0snprintf$8) refers to printf8.o(i._snputc) for _snputc
    printf8.o(i.__0sprintf$8) refers to printf8.o(i._printf_core) for _printf_core
    printf8.o(i.__0sprintf$8) refers to printf8.o(i._sputc) for _sputc
    printf8.o(i.__0vfprintf$8) refers to printf8.o(i._printf_core) for _printf_core
    printf8.o(i.__0vfprintf$8) refers to main.o(.text) for fputc
    printf8.o(i.__0vprintf$8) refers to printf8.o(i._printf_core) for _printf_core
    printf8.o(i.__0vprintf$8) refers to main.o(.text) for fputc
    printf8.o(i.__0vprintf$8) refers to stdout.o(.data) for __stdout
    printf8.o(i.__0vsnprintf$8) refers to printf8.o(i._printf_core) for _printf_core
    printf8.o(i.__0vsnprintf$8) refers to printf8.o(i._snputc) for _snputc
    printf8.o(i.__0vsprintf$8) refers to printf8.o(i._printf_core) for _printf_core
    printf8.o(i.__0vsprintf$8) refers to printf8.o(i._sputc) for _sputc
    printf8.o(i._printf_core) refers to printf8.o(i._printf_pre_padding) for _printf_pre_padding
    printf8.o(i._printf_core) refers to uldiv.o(.text) for __aeabi_uldivmod
    printf8.o(i._printf_core) refers to printf8.o(i._printf_post_padding) for _printf_post_padding
    printfa.o(i.__0fprintf) refers (Special) to iusefp.o(.text) for __I$use$fp
    printfa.o(i.__0fprintf) refers to printfa.o(i._printf_core) for _printf_core
    printfa.o(i.__0fprintf) refers to main.o(.text) for fputc
    printfa.o(i.__0printf) refers (Special) to iusefp.o(.text) for __I$use$fp
    printfa.o(i.__0printf) refers to printfa.o(i._printf_core) for _printf_core
    printfa.o(i.__0printf) refers to main.o(.text) for fputc
    printfa.o(i.__0printf) refers to stdout.o(.data) for __stdout
    printfa.o(i.__0snprintf) refers (Special) to iusefp.o(.text) for __I$use$fp
    printfa.o(i.__0snprintf) refers to printfa.o(i._printf_core) for _printf_core
    printfa.o(i.__0snprintf) refers to printfa.o(i._snputc) for _snputc
    printfa.o(i.__0sprintf) refers (Special) to iusefp.o(.text) for __I$use$fp
    printfa.o(i.__0sprintf) refers to printfa.o(i._printf_core) for _printf_core
    printfa.o(i.__0sprintf) refers to printfa.o(i._sputc) for _sputc
    printfa.o(i.__0vfprintf) refers (Special) to iusefp.o(.text) for __I$use$fp
    printfa.o(i.__0vfprintf) refers to printfa.o(i._printf_core) for _printf_core
    printfa.o(i.__0vfprintf) refers to main.o(.text) for fputc
    printfa.o(i.__0vprintf) refers (Special) to iusefp.o(.text) for __I$use$fp
    printfa.o(i.__0vprintf) refers to printfa.o(i._printf_core) for _printf_core
    printfa.o(i.__0vprintf) refers to main.o(.text) for fputc
    printfa.o(i.__0vprintf) refers to stdout.o(.data) for __stdout
    printfa.o(i.__0vsnprintf) refers (Special) to iusefp.o(.text) for __I$use$fp
    printfa.o(i.__0vsnprintf) refers to printfa.o(i._printf_core) for _printf_core
    printfa.o(i.__0vsnprintf) refers to printfa.o(i._snputc) for _snputc
    printfa.o(i.__0vsprintf) refers (Special) to iusefp.o(.text) for __I$use$fp
    printfa.o(i.__0vsprintf) refers to printfa.o(i._printf_core) for _printf_core
    printfa.o(i.__0vsprintf) refers to printfa.o(i._sputc) for _sputc
    printfa.o(i._fp_digits) refers (Special) to iusefp.o(.text) for __I$use$fp
    printfa.o(i._fp_digits) refers to dmul.o(.text) for __aeabi_dmul
    printfa.o(i._fp_digits) refers to ddiv.o(.text) for __aeabi_ddiv
    printfa.o(i._fp_digits) refers to cdrcmple.o(.text) for __aeabi_cdrcmple
    printfa.o(i._fp_digits) refers to dadd.o(.text) for __aeabi_dadd
    printfa.o(i._fp_digits) refers to dfixul.o(.text) for __aeabi_d2ulz
    printfa.o(i._fp_digits) refers to uldiv.o(.text) for __aeabi_uldivmod
    printfa.o(i._printf_core) refers (Special) to iusefp.o(.text) for __I$use$fp
    printfa.o(i._printf_core) refers to printfa.o(i._printf_pre_padding) for _printf_pre_padding
    printfa.o(i._printf_core) refers to uldiv.o(.text) for __aeabi_uldivmod
    printfa.o(i._printf_core) refers to printfa.o(i._printf_post_padding) for _printf_post_padding
    printfa.o(i._printf_core) refers to printfa.o(i._fp_digits) for _fp_digits
    printfa.o(i._printf_core) refers to uidiv.o(.text) for __aeabi_uidivmod
    printfa.o(i._printf_post_padding) refers (Special) to iusefp.o(.text) for __I$use$fp
    printfa.o(i._printf_pre_padding) refers (Special) to iusefp.o(.text) for __I$use$fp
    printfa.o(i._snputc) refers (Special) to iusefp.o(.text) for __I$use$fp
    printfa.o(i._sputc) refers (Special) to iusefp.o(.text) for __I$use$fp
    malloc.o(i.free) refers to mvars.o(.data) for __microlib_freelist
    malloc.o(i.malloc) refers to mvars.o(.data) for __microlib_freelist_initialised
    malloc.o(i.malloc) refers to mvars.o(.data) for __microlib_freelist
    malloc.o(i.malloc) refers to startup_stm32f429x.o(HEAP) for __heap_base
    mallocr.o(i.__free$realloc) refers to mvars.o(.data) for __microlib_freelist
    mallocr.o(i.__malloc$realloc) refers to mallocr.o(i.internal_alloc) for internal_alloc
    mallocr.o(i.__malloc$realloc) refers to mvars.o(.data) for __microlib_freelist_initialised
    mallocr.o(i.__malloc$realloc) refers to startup_stm32f429x.o(HEAP) for __heap_base
    mallocr.o(i.__malloc$realloc) refers to mvars.o(.data) for __microlib_freelist
    mallocr.o(i.internal_alloc) refers to memcpya.o(.text) for __aeabi_memcpy
    mallocr.o(i.internal_alloc) refers to mvars.o(.data) for __microlib_freelist
    mallocr.o(i.realloc) refers to mallocr.o(i.__free$realloc) for __free$realloc
    mallocr.o(i.realloc) refers to mallocr.o(i.internal_alloc) for internal_alloc
    mallocr.o(i.realloc) refers to mallocr.o(i.__malloc$realloc) for __malloc$realloc
    mallocr.o(i.realloc) refers to mvars.o(.data) for __microlib_freelist
    malloca.o(i.__aligned_malloc) refers to mvars.o(.data) for __microlib_freelist_initialised
    malloca.o(i.__aligned_malloc) refers to mvars.o(.data) for __microlib_freelist
    malloca.o(i.__aligned_malloc) refers to startup_stm32f429x.o(HEAP) for __heap_base
    malloca.o(i.__free$memalign) refers to mvars.o(.data) for __microlib_freelist
    malloca.o(i.__malloc$memalign) refers to malloca.o(i.__aligned_malloc) for __aligned_malloc
    mallocra.o(i.__aligned_malloc$realloc) refers to mallocra.o(i.internal_alloc) for internal_alloc
    mallocra.o(i.__aligned_malloc$realloc) refers to mvars.o(.data) for __microlib_freelist_initialised
    mallocra.o(i.__aligned_malloc$realloc) refers to startup_stm32f429x.o(HEAP) for __heap_base
    mallocra.o(i.__aligned_malloc$realloc) refers to mvars.o(.data) for __microlib_freelist
    mallocra.o(i.__free$realloc$memalign) refers to mvars.o(.data) for __microlib_freelist
    mallocra.o(i.__malloc$realloc$memalign) refers to mallocra.o(i.__aligned_malloc$realloc) for __aligned_malloc$realloc
    mallocra.o(i.__realloc$memalign) refers to mallocra.o(i.__free$realloc$memalign) for __free$realloc$memalign
    mallocra.o(i.__realloc$memalign) refers to mallocra.o(i.internal_alloc) for internal_alloc
    mallocra.o(i.__realloc$memalign) refers to mallocra.o(i.__malloc$realloc$memalign) for __malloc$realloc$memalign
    mallocra.o(i.__realloc$memalign) refers to mvars.o(.data) for __microlib_freelist
    mallocra.o(i.internal_alloc) refers to memcpya.o(.text) for __aeabi_memcpy
    mallocra.o(i.internal_alloc) refers to mvars.o(.data) for __microlib_freelist
    calloc.o(.text) refers to malloc.o(i.malloc) for malloc
    atoi.o(.text) refers to errno.o(i.__aeabi_errno_addr) for __aeabi_errno_addr
    atoi.o(.text) refers to strtol.o(.text) for strtol
    dadd.o(.text) refers (Special) to iusefp.o(.text) for __I$use$fp
    dadd.o(.text) refers to llshl.o(.text) for __aeabi_llsl
    dadd.o(.text) refers to llsshr.o(.text) for __aeabi_lasr
    dadd.o(.text) refers to depilogue.o(.text) for _double_epilogue
    dmul.o(.text) refers (Special) to iusefp.o(.text) for __I$use$fp
    dmul.o(.text) refers to depilogue.o(.text) for _double_epilogue
    ddiv.o(.text) refers (Special) to iusefp.o(.text) for __I$use$fp
    ddiv.o(.text) refers to depilogue.o(.text) for _double_round
    dflti.o(.text) refers (Special) to iusefp.o(.text) for __I$use$fp
    dflti.o(.text) refers to depilogue.o(.text) for _double_epilogue
    dfltui.o(.text) refers (Special) to iusefp.o(.text) for __I$use$fp
    dfltui.o(.text) refers to depilogue.o(.text) for _double_epilogue
    dfltul.o(.text) refers (Special) to iusefp.o(.text) for __I$use$fp
    dfltul.o(.text) refers to depilogue.o(.text) for _double_epilogue
    dfixi.o(.text) refers (Special) to iusefp.o(.text) for __I$use$fp
    dfixi.o(.text) refers to llushr.o(.text) for __aeabi_llsr
    f2d.o(.text) refers (Special) to iusefp.o(.text) for __I$use$fp
    cdcmple.o(.text) refers (Special) to iusefp.o(.text) for __I$use$fp
    cdrcmple.o(.text) refers (Special) to iusefp.o(.text) for __I$use$fp
    d2f.o(.text) refers (Special) to iusefp.o(.text) for __I$use$fp
    d2f.o(.text) refers to fepilogue.o(.text) for _float_round
    dunder.o(i.__mathlib_dbl_underflow) refers to dmul.o(.text) for __aeabi_dmul
    fpclassify.o(i.__ARM_fpclassify) refers (Special) to iusefp.o(.text) for __I$use$fp
    poly.o(i.__kernel_poly) refers (Special) to iusefp.o(.text) for __I$use$fp
    poly.o(i.__kernel_poly) refers to dmul.o(.text) for __aeabi_dmul
    poly.o(i.__kernel_poly) refers to dadd.o(.text) for __aeabi_dadd
    qnan.o(.constdata) refers (Special) to iusefp.o(.text) for __I$use$fp
    sqrt.o(i.__hardfp_sqrt) refers (Special) to iusefp.o(.text) for __I$use$fp
    sqrt.o(i.__hardfp_sqrt) refers to dsqrt.o(.text) for _dsqrt
    sqrt.o(i.__hardfp_sqrt) refers to errno.o(i.__set_errno) for __set_errno
    sqrt.o(i.__softfp_sqrt) refers (Special) to iusefp.o(.text) for __I$use$fp
    sqrt.o(i.__softfp_sqrt) refers to dsqrt.o(.text) for _dsqrt
    sqrt.o(i.__softfp_sqrt) refers to errno.o(i.__set_errno) for __set_errno
    sqrt.o(i.sqrt) refers (Special) to iusefp.o(.text) for __I$use$fp
    sqrt.o(i.sqrt) refers to dsqrt.o(.text) for _dsqrt
    sqrt.o(i.sqrt) refers to errno.o(i.__set_errno) for __set_errno
    sqrt_x.o(i.____hardfp_sqrt$lsc) refers (Special) to iusefp.o(.text) for __I$use$fp
    sqrt_x.o(i.____hardfp_sqrt$lsc) refers to cdcmple.o(.text) for __aeabi_cdcmple
    sqrt_x.o(i.____hardfp_sqrt$lsc) refers to errno.o(i.__set_errno) for __set_errno
    sqrt_x.o(i.____hardfp_sqrt$lsc) refers to dsqrt.o(.text) for _dsqrt
    sqrt_x.o(i.____softfp_sqrt$lsc) refers (Special) to iusefp.o(.text) for __I$use$fp
    sqrt_x.o(i.____softfp_sqrt$lsc) refers to cdcmple.o(.text) for __aeabi_cdcmple
    sqrt_x.o(i.____softfp_sqrt$lsc) refers to errno.o(i.__set_errno) for __set_errno
    sqrt_x.o(i.____softfp_sqrt$lsc) refers to dsqrt.o(.text) for _dsqrt
    sqrt_x.o(i.__sqrt$lsc) refers (Special) to iusefp.o(.text) for __I$use$fp
    sqrt_x.o(i.__sqrt$lsc) refers to cdcmple.o(.text) for __aeabi_cdcmple
    sqrt_x.o(i.__sqrt$lsc) refers to errno.o(i.__set_errno) for __set_errno
    sqrt_x.o(i.__sqrt$lsc) refers to dsqrt.o(.text) for _dsqrt
    entry2.o(.ARM.Collect$$$$00000001) refers to entry2.o(.ARM.Collect$$$$00002712) for __lit__00000000
    entry2.o(.ARM.Collect$$$$00002712) refers to startup_stm32f429x.o(STACK) for __initial_sp
    entry2.o(__vectab_stack_and_reset_area) refers to startup_stm32f429x.o(STACK) for __initial_sp
    entry2.o(__vectab_stack_and_reset_area) refers to entry.o(.ARM.Collect$$$$00000000) for __main
    entry5.o(.ARM.Collect$$$$00000004) refers to init.o(.text) for __scatterload
    entry9a.o(.ARM.Collect$$$$0000000B) refers to main.o(.text) for main
    entry9b.o(.ARM.Collect$$$$0000000C) refers to main.o(.text) for main
    uldiv.o(.text) refers to llushr.o(.text) for __aeabi_llsr
    uldiv.o(.text) refers to llshl.o(.text) for __aeabi_llsl
    errno.o(i.__aeabi_errno_addr) refers to errno.o(.data) for .data
    errno.o(i.__read_errno) refers to errno.o(.data) for .data
    errno.o(i.__set_errno) refers to errno.o(.data) for .data
    strtod.o(.text) refers to scanf_fp.o(.text) for _scanf_real
    strtod.o(.text) refers to _sgetc.o(.text) for _sgetc
    strtod.o(.text) refers to isspace_o.o(.text) for isspace
    strtol.o(.text) refers to ctype_o.o(.text) for __rt_ctype_table
    strtol.o(.text) refers to _strtoul.o(.text) for _strtoul
    strtol.o(.text) refers to errno.o(i.__aeabi_errno_addr) for __aeabi_errno_addr
    depilogue.o(.text) refers to llshl.o(.text) for __aeabi_llsl
    depilogue.o(.text) refers to llushr.o(.text) for __aeabi_llsr
    dfixul.o(.text) refers to llushr.o(.text) for __aeabi_llsr
    dfixul.o(.text) refers to llshl.o(.text) for __aeabi_llsl
    init.o(.text) refers to entry5.o(.ARM.Collect$$$$00000004) for __main_after_scatterload
    isspace_c.o(.text) refers to ctype_c.o(.text) for __ctype_lookup
    scanf_fp.o(.text) refers (Special) to iusefp.o(.text) for __I$use$fp
    scanf_fp.o(.text) refers to dfltul.o(.text) for __aeabi_ul2d
    scanf_fp.o(.text) refers to dmul.o(.text) for __aeabi_dmul
    scanf_fp.o(.text) refers to ddiv.o(.text) for __aeabi_ddiv
    scanf_fp.o(.text) refers to scanf_fp.o(i._is_digit) for _is_digit
    scanf_fp.o(.text) refers to d2f.o(.text) for __aeabi_d2f
    _strtoul.o(.text) refers to _chval.o(.text) for _chval
    _strtoul.o(.text) refers to errno.o(i.__aeabi_errno_addr) for __aeabi_errno_addr
    dsqrt.o(.text) refers to llushr.o(.text) for __aeabi_llsr
    dsqrt.o(.text) refers to depilogue.o(.text) for _double_round
    ctype_c.o(.text) refers to ctype_c.o(.constdata) for .constdata
    scanf_fp.o(i._is_digit) refers (Special) to iusefp.o(.text) for __I$use$fp


==============================================================================

Removing Unused input sections from the image.

    Removing system_stm32f4xx.o(.rev16_text), (4 bytes).
    Removing system_stm32f4xx.o(.revsh_text), (4 bytes).
    Removing main.o(.rev16_text), (4 bytes).
    Removing main.o(.revsh_text), (4 bytes).
    Removing veth_com_usart.o(.rev16_text), (4 bytes).
    Removing veth_com_usart.o(.revsh_text), (4 bytes).
    Removing veth_eth_ap.o(.rev16_text), (4 bytes).
    Removing veth_eth_ap.o(.revsh_text), (4 bytes).
    Removing veth_hal_init.o(.rev16_text), (4 bytes).
    Removing veth_hal_init.o(.revsh_text), (4 bytes).
    Removing veth_invariate.o(.rev16_text), (4 bytes).
    Removing veth_invariate.o(.revsh_text), (4 bytes).
    Removing veth_m_4pse.o(.rev16_text), (4 bytes).
    Removing veth_m_4pse.o(.revsh_text), (4 bytes).
    Removing veth_marvell_6097f.o(.rev16_text), (4 bytes).
    Removing veth_marvell_6097f.o(.revsh_text), (4 bytes).
    Removing veth_sdram.o(.rev16_text), (4 bytes).
    Removing veth_sdram.o(.revsh_text), (4 bytes).
    Removing veth_sdram.o(.text), (1116 bytes).
    Removing veth_sdram.o(.bss), (260 bytes).
    Removing veth_sdram.o(.data), (56 bytes).
    Removing veth_system_clock.o(.rev16_text), (4 bytes).
    Removing veth_system_clock.o(.revsh_text), (4 bytes).
    Removing stm32f4xx_it.o(.rev16_text), (4 bytes).
    Removing stm32f4xx_it.o(.revsh_text), (4 bytes).
    Removing veth_rstp.o(.rev16_text), (4 bytes).
    Removing veth_rstp.o(.revsh_text), (4 bytes).
    Removing veth_serial.o(.rev16_text), (4 bytes).
    Removing veth_serial.o(.revsh_text), (4 bytes).
    Removing edge.o(.rev16_text), (4 bytes).
    Removing edge.o(.revsh_text), (4 bytes).
    Removing migrate.o(.rev16_text), (4 bytes).
    Removing migrate.o(.revsh_text), (4 bytes).
    Removing p2p.o(.rev16_text), (4 bytes).
    Removing p2p.o(.revsh_text), (4 bytes).
    Removing pcost.o(.rev16_text), (4 bytes).
    Removing pcost.o(.revsh_text), (4 bytes).
    Removing port.o(.rev16_text), (4 bytes).
    Removing port.o(.revsh_text), (4 bytes).
    Removing portinfo.o(.rev16_text), (4 bytes).
    Removing portinfo.o(.revsh_text), (4 bytes).
    Removing rolesel.o(.rev16_text), (4 bytes).
    Removing rolesel.o(.revsh_text), (4 bytes).
    Removing roletrns.o(.rev16_text), (4 bytes).
    Removing roletrns.o(.revsh_text), (4 bytes).
    Removing statmch.o(.rev16_text), (4 bytes).
    Removing statmch.o(.revsh_text), (4 bytes).
    Removing stp_in.o(.rev16_text), (4 bytes).
    Removing stp_in.o(.revsh_text), (4 bytes).
    Removing stp_to.o(.rev16_text), (4 bytes).
    Removing stp_to.o(.revsh_text), (4 bytes).
    Removing stpm.o(.rev16_text), (4 bytes).
    Removing stpm.o(.revsh_text), (4 bytes).
    Removing sttrans.o(.rev16_text), (4 bytes).
    Removing sttrans.o(.revsh_text), (4 bytes).
    Removing times.o(.rev16_text), (4 bytes).
    Removing times.o(.revsh_text), (4 bytes).
    Removing topoch.o(.rev16_text), (4 bytes).
    Removing topoch.o(.revsh_text), (4 bytes).
    Removing transmit.o(.rev16_text), (4 bytes).
    Removing transmit.o(.revsh_text), (4 bytes).
    Removing vector.o(.rev16_text), (4 bytes).
    Removing vector.o(.revsh_text), (4 bytes).
    Removing veth_netupgrade.o(.rev16_text), (4 bytes).
    Removing veth_netupgrade.o(.revsh_text), (4 bytes).
    Removing veth_mac.o(.rev16_text), (4 bytes).
    Removing veth_mac.o(.revsh_text), (4 bytes).
    Removing veth_port.o(.rev16_text), (4 bytes).
    Removing veth_port.o(.revsh_text), (4 bytes).
    Removing veth_vlan.o(.rev16_text), (4 bytes).
    Removing veth_vlan.o(.revsh_text), (4 bytes).
    Removing veth_com.o(.rev16_text), (4 bytes).
    Removing veth_com.o(.revsh_text), (4 bytes).
    Removing veth_com.o(.conststring), (15020 bytes).
    Removing veth_com.o(.data), (15025 bytes).
    Removing stm32f4xx_hal.o(.rev16_text), (4 bytes).
    Removing stm32f4xx_hal.o(.revsh_text), (4 bytes).
    Removing stm32f4xx_hal_adc.o(.rev16_text), (4 bytes).
    Removing stm32f4xx_hal_adc.o(.revsh_text), (4 bytes).
    Removing stm32f4xx_hal_cortex.o(.rev16_text), (4 bytes).
    Removing stm32f4xx_hal_cortex.o(.revsh_text), (4 bytes).
    Removing stm32f4xx_hal_dma.o(.rev16_text), (4 bytes).
    Removing stm32f4xx_hal_dma.o(.revsh_text), (4 bytes).
    Removing stm32f4xx_hal_dma_ex.o(.rev16_text), (4 bytes).
    Removing stm32f4xx_hal_dma_ex.o(.revsh_text), (4 bytes).
    Removing stm32f4xx_hal_dma2d.o(.rev16_text), (4 bytes).
    Removing stm32f4xx_hal_dma2d.o(.revsh_text), (4 bytes).
    Removing stm32f4xx_hal_dma2d.o(.text), (1984 bytes).
    Removing stm32f4xx_hal_eth.o(.rev16_text), (4 bytes).
    Removing stm32f4xx_hal_eth.o(.revsh_text), (4 bytes).
    Removing stm32f4xx_hal_flash.o(.rev16_text), (4 bytes).
    Removing stm32f4xx_hal_flash.o(.revsh_text), (4 bytes).
    Removing stm32f4xx_hal_flash_ex.o(.rev16_text), (4 bytes).
    Removing stm32f4xx_hal_flash_ex.o(.revsh_text), (4 bytes).
    Removing stm32f4xx_hal_gpio.o(.rev16_text), (4 bytes).
    Removing stm32f4xx_hal_gpio.o(.revsh_text), (4 bytes).
    Removing stm32f4xx_hal_i2c.o(.rev16_text), (4 bytes).
    Removing stm32f4xx_hal_i2c.o(.revsh_text), (4 bytes).
    Removing stm32f4xx_hal_i2c_ex.o(.rev16_text), (4 bytes).
    Removing stm32f4xx_hal_i2c_ex.o(.revsh_text), (4 bytes).
    Removing stm32f4xx_hal_i2c_ex.o(.text), (180 bytes).
    Removing stm32f4xx_hal_nor.o(.rev16_text), (4 bytes).
    Removing stm32f4xx_hal_nor.o(.revsh_text), (4 bytes).
    Removing stm32f4xx_hal_pwr.o(.rev16_text), (4 bytes).
    Removing stm32f4xx_hal_pwr.o(.revsh_text), (4 bytes).
    Removing stm32f4xx_hal_pwr.o(.text), (376 bytes).
    Removing stm32f4xx_hal_pwr_ex.o(.rev16_text), (4 bytes).
    Removing stm32f4xx_hal_pwr_ex.o(.revsh_text), (4 bytes).
    Removing stm32f4xx_hal_pwr_ex.o(.text), (344 bytes).
    Removing stm32f4xx_hal_rcc.o(.rev16_text), (4 bytes).
    Removing stm32f4xx_hal_rcc.o(.revsh_text), (4 bytes).
    Removing stm32f4xx_hal_rcc_ex.o(.rev16_text), (4 bytes).
    Removing stm32f4xx_hal_rcc_ex.o(.revsh_text), (4 bytes).
    Removing stm32f4xx_hal_rcc_ex.o(.text), (1044 bytes).
    Removing stm32f4xx_hal_sdram.o(.rev16_text), (4 bytes).
    Removing stm32f4xx_hal_sdram.o(.revsh_text), (4 bytes).
    Removing stm32f4xx_hal_tim.o(.rev16_text), (4 bytes).
    Removing stm32f4xx_hal_tim.o(.revsh_text), (4 bytes).
    Removing stm32f4xx_hal_tim_ex.o(.rev16_text), (4 bytes).
    Removing stm32f4xx_hal_tim_ex.o(.revsh_text), (4 bytes).
    Removing stm32f4xx_hal_uart.o(.rev16_text), (4 bytes).
    Removing stm32f4xx_hal_uart.o(.revsh_text), (4 bytes).
    Removing stm32f4xx_ll_fmc.o(.rev16_text), (4 bytes).
    Removing stm32f4xx_ll_fmc.o(.revsh_text), (4 bytes).
    Removing stm32f4xx_ll_fsmc.o(.rev16_text), (4 bytes).
    Removing stm32f4xx_ll_fsmc.o(.revsh_text), (4 bytes).
    Removing stm32f4xx_hal_iwdg.o(.rev16_text), (4 bytes).
    Removing stm32f4xx_hal_iwdg.o(.revsh_text), (4 bytes).
    Removing mib2.o(.rev16_text), (4 bytes).
    Removing mib2.o(.revsh_text), (4 bytes).
    Removing sys.o(.rev16_text), (4 bytes).
    Removing sys.o(.revsh_text), (4 bytes).
    Removing etharp.o(.rev16_text), (4 bytes).
    Removing etharp.o(.revsh_text), (4 bytes).
    Removing ethernetif.o(.rev16_text), (4 bytes).
    Removing ethernetif.o(.revsh_text), (4 bytes).
    Removing ethernetif.o(.bss), (4096 bytes).
    Removing ethernetif.o(.conststring), (15020 bytes).
    Removing ethernetif.o(.data), (15024 bytes).
    Removing memp.o(.conststring), (161 bytes).
    Removing memp.o(.data), (60 bytes).
    Removing netif.o(.rev16_text), (4 bytes).
    Removing netif.o(.revsh_text), (4 bytes).
    Removing board_info.o(.rev16_text), (4 bytes).
    Removing board_info.o(.revsh_text), (4 bytes).
    Removing fs.o(.rev16_text), (4 bytes).
    Removing fs.o(.revsh_text), (4 bytes).
    Removing web_main.o(.rev16_text), (4 bytes).
    Removing web_main.o(.revsh_text), (4 bytes).
    Removing ip_config.o(.rev16_text), (4 bytes).
    Removing ip_config.o(.revsh_text), (4 bytes).
    Removing ip_config.o(.conststring), (15020 bytes).
    Removing ip_config.o(.data), (15020 bytes).
    Removing httpd.o(.rev16_text), (4 bytes).
    Removing httpd.o(.revsh_text), (4 bytes).
    Removing httpd-cgi.o(.rev16_text), (4 bytes).
    Removing httpd-cgi.o(.revsh_text), (4 bytes).
    Removing ports.o(.rev16_text), (4 bytes).
    Removing ports.o(.revsh_text), (4 bytes).
    Removing system_maintain.o(.rev16_text), (4 bytes).
    Removing system_maintain.o(.revsh_text), (4 bytes).
    Removing system_info.o(.rev16_text), (4 bytes).
    Removing system_info.o(.revsh_text), (4 bytes).
    Removing mac_link.o(.rev16_text), (4 bytes).
    Removing mac_link.o(.revsh_text), (4 bytes).
    Removing mac_table.o(.rev16_text), (4 bytes).
    Removing mac_table.o(.revsh_text), (4 bytes).
    Removing mac.o(.rev16_text), (4 bytes).
    Removing mac.o(.revsh_text), (4 bytes).
    Removing mac.o(.conststring), (15020 bytes).
    Removing mac.o(.data), (15020 bytes).
    Removing vlan.o(.rev16_text), (4 bytes).
    Removing vlan.o(.revsh_text), (4 bytes).
    Removing vlan.o(.conststring), (15020 bytes).
    Removing vlan.o(.data), (15020 bytes).
    Removing vlan_link.o(.rev16_text), (4 bytes).
    Removing vlan_link.o(.revsh_text), (4 bytes).
    Removing user.o(.rev16_text), (4 bytes).
    Removing user.o(.revsh_text), (4 bytes).
    Removing user.o(.conststring), (15020 bytes).
    Removing user.o(.data), (15020 bytes).
    Removing ntp_client.o(.rev16_text), (4 bytes).
    Removing ntp_client.o(.revsh_text), (4 bytes).
    Removing jsonutility.o(.rev16_text), (4 bytes).
    Removing jsonutility.o(.revsh_text), (4 bytes).
    Removing upload_file.o(.rev16_text), (4 bytes).
    Removing upload_file.o(.revsh_text), (4 bytes).
    Removing loginfo.o(.rev16_text), (4 bytes).
    Removing loginfo.o(.revsh_text), (4 bytes).
    Removing logutility.o(.rev16_text), (4 bytes).
    Removing logutility.o(.revsh_text), (4 bytes).
    Removing logutility.o(.conststring), (15020 bytes).
    Removing logutility.o(.data), (15020 bytes).
    Removing session.o(.rev16_text), (4 bytes).
    Removing session.o(.revsh_text), (4 bytes).
    Removing serialqueue.o(.rev16_text), (4 bytes).
    Removing serialqueue.o(.revsh_text), (4 bytes).
    Removing serialqueue.o(.conststring), (15020 bytes).
    Removing serialqueue.o(.data), (15020 bytes).
    Removing serialutility.o(.rev16_text), (4 bytes).
    Removing serialutility.o(.revsh_text), (4 bytes).
    Removing serialclient.o(.rev16_text), (4 bytes).
    Removing serialclient.o(.revsh_text), (4 bytes).
    Removing serialclient.o(.conststring), (15020 bytes).
    Removing serialclient.o(.data), (15024 bytes).
    Removing serialclientudp.o(.rev16_text), (4 bytes).
    Removing serialclientudp.o(.revsh_text), (4 bytes).
    Removing serialclientudp.o(.bss), (864 bytes).
    Removing serialclientudp.o(.conststring), (15020 bytes).
    Removing serialclientudp.o(.data), (15020 bytes).
    Removing serialserver.o(.rev16_text), (4 bytes).
    Removing serialserver.o(.revsh_text), (4 bytes).
    Removing serialserver.o(.conststring), (15020 bytes).
    Removing serialserver.o(.data), (15028 bytes).
    Removing serialserverudp.o(.rev16_text), (4 bytes).
    Removing serialserverudp.o(.revsh_text), (4 bytes).
    Removing serialserverudp.o(.conststring), (15020 bytes).
    Removing serialserverudp.o(.data), (15020 bytes).
    Removing multicastutility.o(.rev16_text), (4 bytes).
    Removing multicastutility.o(.revsh_text), (4 bytes).
    Removing multicastutility.o(.text), (564 bytes).
    Removing multicastutility.o(.conststring), (15020 bytes).
    Removing multicastutility.o(.data), (15024 bytes).
    Removing dneg.o(.text), (6 bytes).

224 unused section(s) (total 402392 bytes) removed from the image.

==============================================================================

Image Symbol Table

    Local Symbols

    Symbol Name                              Value     Ov Type        Size  Object(Section)

    ../clib/../cmprslib/lz77c.c              0x00000000   Number         0  __dclz77c.o ABSOLUTE
    ../clib/microlib/ctype/ctype.c           0x00000000   Number         0  isalpha_o.o ABSOLUTE
    ../clib/microlib/ctype/ctype.c           0x00000000   Number         0  isdigit_o.o ABSOLUTE
    ../clib/microlib/ctype/ctype.c           0x00000000   Number         0  iscntrl_o.o ABSOLUTE
    ../clib/microlib/ctype/ctype.c           0x00000000   Number         0  islower_o.o ABSOLUTE
    ../clib/microlib/ctype/ctype.c           0x00000000   Number         0  isupper_o.o ABSOLUTE
    ../clib/microlib/ctype/ctype.c           0x00000000   Number         0  ispunct_o.o ABSOLUTE
    ../clib/microlib/ctype/ctype.c           0x00000000   Number         0  isspace_o.o ABSOLUTE
    ../clib/microlib/ctype/ctype.c           0x00000000   Number         0  ctype_c.o ABSOLUTE
    ../clib/microlib/ctype/ctype.c           0x00000000   Number         0  isblank_o.o ABSOLUTE
    ../clib/microlib/ctype/ctype.c           0x00000000   Number         0  isgraph_o.o ABSOLUTE
    ../clib/microlib/ctype/ctype.c           0x00000000   Number         0  isspace_c.o ABSOLUTE
    ../clib/microlib/ctype/ctype.c           0x00000000   Number         0  isalnum_o.o ABSOLUTE
    ../clib/microlib/ctype/ctype.c           0x00000000   Number         0  ctype_o.o ABSOLUTE
    ../clib/microlib/ctype/ctype.c           0x00000000   Number         0  isprint_o.o ABSOLUTE
    ../clib/microlib/ctype/ctype.c           0x00000000   Number         0  isxdigit_o.o ABSOLUTE
    ../clib/microlib/ctype/tolower.c         0x00000000   Number         0  tolower.o ABSOLUTE
    ../clib/microlib/division.c              0x00000000   Number         0  uidiv.o ABSOLUTE
    ../clib/microlib/division.c              0x00000000   Number         0  uldiv.o ABSOLUTE
    ../clib/microlib/errno.c                 0x00000000   Number         0  errno.o ABSOLUTE
    ../clib/microlib/init/entry.s            0x00000000   Number         0  entry9a.o ABSOLUTE
    ../clib/microlib/init/entry.s            0x00000000   Number         0  entry8b.o ABSOLUTE
    ../clib/microlib/init/entry.s            0x00000000   Number         0  entry10a.o ABSOLUTE
    ../clib/microlib/init/entry.s            0x00000000   Number         0  entry9b.o ABSOLUTE
    ../clib/microlib/init/entry.s            0x00000000   Number         0  entry7a.o ABSOLUTE
    ../clib/microlib/init/entry.s            0x00000000   Number         0  entry2.o ABSOLUTE
    ../clib/microlib/init/entry.s            0x00000000   Number         0  entry11a.o ABSOLUTE
    ../clib/microlib/init/entry.s            0x00000000   Number         0  entry5.o ABSOLUTE
    ../clib/microlib/init/entry.s            0x00000000   Number         0  entry.o ABSOLUTE
    ../clib/microlib/init/entry.s            0x00000000   Number         0  entry8a.o ABSOLUTE
    ../clib/microlib/init/entry.s            0x00000000   Number         0  entry7b.o ABSOLUTE
    ../clib/microlib/init/entry.s            0x00000000   Number         0  entry11b.o ABSOLUTE
    ../clib/microlib/init/entry.s            0x00000000   Number         0  entry10b.o ABSOLUTE
    ../clib/microlib/longlong.c              0x00000000   Number         0  llshl.o ABSOLUTE
    ../clib/microlib/longlong.c              0x00000000   Number         0  llsshr.o ABSOLUTE
    ../clib/microlib/longlong.c              0x00000000   Number         0  llushr.o ABSOLUTE
    ../clib/microlib/malloc/calloc.c         0x00000000   Number         0  calloc.o ABSOLUTE
    ../clib/microlib/malloc/malloc.c         0x00000000   Number         0  mallocr.o ABSOLUTE
    ../clib/microlib/malloc/malloc.c         0x00000000   Number         0  malloc.o ABSOLUTE
    ../clib/microlib/malloc/malloc.c         0x00000000   Number         0  mallocra.o ABSOLUTE
    ../clib/microlib/malloc/malloc.c         0x00000000   Number         0  malloca.o ABSOLUTE
    ../clib/microlib/malloc/mvars.c          0x00000000   Number         0  mvars.o ABSOLUTE
    ../clib/microlib/printf/printf.c         0x00000000   Number         0  printf7.o ABSOLUTE
    ../clib/microlib/printf/printf.c         0x00000000   Number         0  printf8.o ABSOLUTE
    ../clib/microlib/printf/printf.c         0x00000000   Number         0  printfa.o ABSOLUTE
    ../clib/microlib/printf/printf.c         0x00000000   Number         0  printfb.o ABSOLUTE
    ../clib/microlib/printf/printf.c         0x00000000   Number         0  printf0.o ABSOLUTE
    ../clib/microlib/printf/printf.c         0x00000000   Number         0  printf1.o ABSOLUTE
    ../clib/microlib/printf/printf.c         0x00000000   Number         0  printf2.o ABSOLUTE
    ../clib/microlib/printf/printf.c         0x00000000   Number         0  printf3.o ABSOLUTE
    ../clib/microlib/printf/printf.c         0x00000000   Number         0  printf4.o ABSOLUTE
    ../clib/microlib/printf/printf.c         0x00000000   Number         0  printf5.o ABSOLUTE
    ../clib/microlib/printf/printf.c         0x00000000   Number         0  printf6.o ABSOLUTE
    ../clib/microlib/printf/stubs.s          0x00000000   Number         0  stubs.o ABSOLUTE
    ../clib/microlib/stdio/streams.c         0x00000000   Number         0  stdout.o ABSOLUTE
    ../clib/microlib/stdio/streams.c         0x00000000   Number         0  stderr.o ABSOLUTE
    ../clib/microlib/stdlib/rand.c           0x00000000   Number         0  rand.o ABSOLUTE
    ../clib/microlib/string/memcmp.c         0x00000000   Number         0  memcmp.o ABSOLUTE
    ../clib/microlib/string/memcpy.c         0x00000000   Number         0  memcpya.o ABSOLUTE
    ../clib/microlib/string/memcpy.c         0x00000000   Number         0  memcpyb.o ABSOLUTE
    ../clib/microlib/string/memset.c         0x00000000   Number         0  memseta.o ABSOLUTE
    ../clib/microlib/string/strcat.c         0x00000000   Number         0  strcat.o ABSOLUTE
    ../clib/microlib/string/strchr.c         0x00000000   Number         0  strchr.o ABSOLUTE
    ../clib/microlib/string/strcmp.c         0x00000000   Number         0  strcmp.o ABSOLUTE
    ../clib/microlib/string/strcpy.c         0x00000000   Number         0  strcpy.o ABSOLUTE
    ../clib/microlib/string/strlen.c         0x00000000   Number         0  strlen.o ABSOLUTE
    ../clib/microlib/string/strncmp.c        0x00000000   Number         0  strncmp.o ABSOLUTE
    ../clib/microlib/string/strncpy.c        0x00000000   Number         0  strncpy.o ABSOLUTE
    ../clib/microlib/string/strrchr.c        0x00000000   Number         0  strrchr.o ABSOLUTE
    ../clib/microlib/string/strstr.c         0x00000000   Number         0  strstr.o ABSOLUTE
    ../clib/microlib/string/strtok.c         0x00000000   Number         0  strtok_r.o ABSOLUTE
    ../clib/microlib/string/strtok.c         0x00000000   Number         0  strtok.o ABSOLUTE
    ../clib/microlib/stubs.s                 0x00000000   Number         0  iusefp.o ABSOLUTE
    ../clib/microlib/time/localtime.c        0x00000000   Number         0  localtime.o ABSOLUTE
    ../clib/scanf.c                          0x00000000   Number         0  strtol.o ABSOLUTE
    ../clib/scanf.c                          0x00000000   Number         0  _sgetc.o ABSOLUTE
    ../clib/scanf.c                          0x00000000   Number         0  strtod.o ABSOLUTE
    ../clib/scanf.c                          0x00000000   Number         0  atoi.o ABSOLUTE
    ../clib/scanf.c                          0x00000000   Number         0  scanf_fp.o ABSOLUTE
    ../clib/scanf.c                          0x00000000   Number         0  _chval.o ABSOLUTE
    ../clib/scanf.c                          0x00000000   Number         0  _strtoul.o ABSOLUTE
    ../fplib/microlib/d2f.c                  0x00000000   Number         0  d2f.o ABSOLUTE
    ../fplib/microlib/f2d.c                  0x00000000   Number         0  f2d.o ABSOLUTE
    ../fplib/microlib/fpadd.c                0x00000000   Number         0  dadd.o ABSOLUTE
    ../fplib/microlib/fpdiv.c                0x00000000   Number         0  ddiv.o ABSOLUTE
    ../fplib/microlib/fpepilogue.c           0x00000000   Number         0  depilogue.o ABSOLUTE
    ../fplib/microlib/fpepilogue.c           0x00000000   Number         0  fepilogue.o ABSOLUTE
    ../fplib/microlib/fpfix.c                0x00000000   Number         0  dfixi.o ABSOLUTE
    ../fplib/microlib/fpfix.c                0x00000000   Number         0  dfixul.o ABSOLUTE
    ../fplib/microlib/fpflt.c                0x00000000   Number         0  dflti.o ABSOLUTE
    ../fplib/microlib/fpflt.c                0x00000000   Number         0  dfltui.o ABSOLUTE
    ../fplib/microlib/fpflt.c                0x00000000   Number         0  dfltul.o ABSOLUTE
    ../fplib/microlib/fpmul.c                0x00000000   Number         0  dmul.o ABSOLUTE
    ../fplib/microlib/fpneg.c                0x00000000   Number         0  dneg.o ABSOLUTE
    ../fplib/microlib/fpscalb.c              0x00000000   Number         0  dscalb.o ABSOLUTE
    ../fplib/microlib/fpsqrt.c               0x00000000   Number         0  dsqrt.o ABSOLUTE
    ../mathlib/atof.c                        0x00000000   Number         0  atof.o ABSOLUTE
    ../mathlib/dunder.c                      0x00000000   Number         0  dunder.o ABSOLUTE
    ../mathlib/fabs.c                        0x00000000   Number         0  fabs.o ABSOLUTE
    ../mathlib/floor.c                       0x00000000   Number         0  floor.o ABSOLUTE
    ../mathlib/fpclassify.c                  0x00000000   Number         0  fpclassify.o ABSOLUTE
    ../mathlib/poly.c                        0x00000000   Number         0  poly.o ABSOLUTE
    ../mathlib/pow.c                         0x00000000   Number         0  pow.o ABSOLUTE
    ../mathlib/pow.c                         0x00000000   Number         0  pow_x.o ABSOLUTE
    ../mathlib/qnan.c                        0x00000000   Number         0  qnan.o ABSOLUTE
    ../mathlib/sqrt.c                        0x00000000   Number         0  sqrt.o ABSOLUTE
    ../mathlib/sqrt.c                        0x00000000   Number         0  sqrt_x.o ABSOLUTE
    ..\JSON\JSON_src\JSONUtility.c           0x00000000   Number         0  jsonutility.o ABSOLUTE
    ..\JSON\JSON_src\cJSON.c                 0x00000000   Number         0  cjson.o ABSOLUTE
    ..\RSTP\src\edge.c                       0x00000000   Number         0  edge.o ABSOLUTE
    ..\RSTP\src\migrate.c                    0x00000000   Number         0  migrate.o ABSOLUTE
    ..\RSTP\src\p2p.c                        0x00000000   Number         0  p2p.o ABSOLUTE
    ..\RSTP\src\pcost.c                      0x00000000   Number         0  pcost.o ABSOLUTE
    ..\RSTP\src\port.c                       0x00000000   Number         0  port.o ABSOLUTE
    ..\RSTP\src\portinfo.c                   0x00000000   Number         0  portinfo.o ABSOLUTE
    ..\RSTP\src\rolesel.c                    0x00000000   Number         0  rolesel.o ABSOLUTE
    ..\RSTP\src\roletrns.c                   0x00000000   Number         0  roletrns.o ABSOLUTE
    ..\RSTP\src\statmch.c                    0x00000000   Number         0  statmch.o ABSOLUTE
    ..\RSTP\src\stp_in.c                     0x00000000   Number         0  stp_in.o ABSOLUTE
    ..\RSTP\src\stp_to.c                     0x00000000   Number         0  stp_to.o ABSOLUTE
    ..\RSTP\src\stpm.c                       0x00000000   Number         0  stpm.o ABSOLUTE
    ..\RSTP\src\sttrans.c                    0x00000000   Number         0  sttrans.o ABSOLUTE
    ..\RSTP\src\times.c                      0x00000000   Number         0  times.o ABSOLUTE
    ..\RSTP\src\topoch.c                     0x00000000   Number         0  topoch.o ABSOLUTE
    ..\RSTP\src\transmit.c                   0x00000000   Number         0  transmit.o ABSOLUTE
    ..\RSTP\src\vector.c                     0x00000000   Number         0  vector.o ABSOLUTE
    ..\STM32F4xx_HAL_Driver\Src\stm32f4xx_hal.c 0x00000000   Number         0  stm32f4xx_hal.o ABSOLUTE
    ..\STM32F4xx_HAL_Driver\Src\stm32f4xx_hal_adc.c 0x00000000   Number         0  stm32f4xx_hal_adc.o ABSOLUTE
    ..\STM32F4xx_HAL_Driver\Src\stm32f4xx_hal_cortex.c 0x00000000   Number         0  stm32f4xx_hal_cortex.o ABSOLUTE
    ..\STM32F4xx_HAL_Driver\Src\stm32f4xx_hal_dma.c 0x00000000   Number         0  stm32f4xx_hal_dma.o ABSOLUTE
    ..\STM32F4xx_HAL_Driver\Src\stm32f4xx_hal_dma2d.c 0x00000000   Number         0  stm32f4xx_hal_dma2d.o ABSOLUTE
    ..\STM32F4xx_HAL_Driver\Src\stm32f4xx_hal_dma_ex.c 0x00000000   Number         0  stm32f4xx_hal_dma_ex.o ABSOLUTE
    ..\STM32F4xx_HAL_Driver\Src\stm32f4xx_hal_eth.c 0x00000000   Number         0  stm32f4xx_hal_eth.o ABSOLUTE
    ..\STM32F4xx_HAL_Driver\Src\stm32f4xx_hal_flash.c 0x00000000   Number         0  stm32f4xx_hal_flash.o ABSOLUTE
    ..\STM32F4xx_HAL_Driver\Src\stm32f4xx_hal_flash_ex.c 0x00000000   Number         0  stm32f4xx_hal_flash_ex.o ABSOLUTE
    ..\STM32F4xx_HAL_Driver\Src\stm32f4xx_hal_gpio.c 0x00000000   Number         0  stm32f4xx_hal_gpio.o ABSOLUTE
    ..\STM32F4xx_HAL_Driver\Src\stm32f4xx_hal_i2c.c 0x00000000   Number         0  stm32f4xx_hal_i2c.o ABSOLUTE
    ..\STM32F4xx_HAL_Driver\Src\stm32f4xx_hal_i2c_ex.c 0x00000000   Number         0  stm32f4xx_hal_i2c_ex.o ABSOLUTE
    ..\STM32F4xx_HAL_Driver\Src\stm32f4xx_hal_iwdg.c 0x00000000   Number         0  stm32f4xx_hal_iwdg.o ABSOLUTE
    ..\STM32F4xx_HAL_Driver\Src\stm32f4xx_hal_nor.c 0x00000000   Number         0  stm32f4xx_hal_nor.o ABSOLUTE
    ..\STM32F4xx_HAL_Driver\Src\stm32f4xx_hal_pwr.c 0x00000000   Number         0  stm32f4xx_hal_pwr.o ABSOLUTE
    ..\STM32F4xx_HAL_Driver\Src\stm32f4xx_hal_pwr_ex.c 0x00000000   Number         0  stm32f4xx_hal_pwr_ex.o ABSOLUTE
    ..\STM32F4xx_HAL_Driver\Src\stm32f4xx_hal_rcc.c 0x00000000   Number         0  stm32f4xx_hal_rcc.o ABSOLUTE
    ..\STM32F4xx_HAL_Driver\Src\stm32f4xx_hal_rcc_ex.c 0x00000000   Number         0  stm32f4xx_hal_rcc_ex.o ABSOLUTE
    ..\STM32F4xx_HAL_Driver\Src\stm32f4xx_hal_sdram.c 0x00000000   Number         0  stm32f4xx_hal_sdram.o ABSOLUTE
    ..\STM32F4xx_HAL_Driver\Src\stm32f4xx_hal_tim.c 0x00000000   Number         0  stm32f4xx_hal_tim.o ABSOLUTE
    ..\STM32F4xx_HAL_Driver\Src\stm32f4xx_hal_tim_ex.c 0x00000000   Number         0  stm32f4xx_hal_tim_ex.o ABSOLUTE
    ..\STM32F4xx_HAL_Driver\Src\stm32f4xx_hal_uart.c 0x00000000   Number         0  stm32f4xx_hal_uart.o ABSOLUTE
    ..\STM32F4xx_HAL_Driver\Src\stm32f4xx_ll_fmc.c 0x00000000   Number         0  stm32f4xx_ll_fmc.o ABSOLUTE
    ..\STM32F4xx_HAL_Driver\Src\stm32f4xx_ll_fsmc.c 0x00000000   Number         0  stm32f4xx_ll_fsmc.o ABSOLUTE
    ..\STM32F4xx_HAL_Driver\re_src\stm32f4xx_it.c 0x00000000   Number         0  stm32f4xx_it.o ABSOLUTE
    ..\STM32F4xx_HAL_Driver\re_src\system_stm32f4xx.c 0x00000000   Number         0  system_stm32f4xx.o ABSOLUTE
    ..\Utility\Utility_src\FindSubstring.c   0x00000000   Number         0  findsubstring.o ABSOLUTE
    ..\Utility\Utility_src\StringHashTable.c 0x00000000   Number         0  stringhashtable.o ABSOLUTE
    ..\Utility\Utility_src\Utility.c         0x00000000   Number         0  utility.o ABSOLUTE
    ..\Utility\Utility_src\upload_file.c     0x00000000   Number         0  upload_file.o ABSOLUTE
    ..\\JSON\\JSON_src\\JSONUtility.c        0x00000000   Number         0  jsonutility.o ABSOLUTE
    ..\\RSTP\\src\\edge.c                    0x00000000   Number         0  edge.o ABSOLUTE
    ..\\RSTP\\src\\migrate.c                 0x00000000   Number         0  migrate.o ABSOLUTE
    ..\\RSTP\\src\\p2p.c                     0x00000000   Number         0  p2p.o ABSOLUTE
    ..\\RSTP\\src\\pcost.c                   0x00000000   Number         0  pcost.o ABSOLUTE
    ..\\RSTP\\src\\port.c                    0x00000000   Number         0  port.o ABSOLUTE
    ..\\RSTP\\src\\portinfo.c                0x00000000   Number         0  portinfo.o ABSOLUTE
    ..\\RSTP\\src\\rolesel.c                 0x00000000   Number         0  rolesel.o ABSOLUTE
    ..\\RSTP\\src\\roletrns.c                0x00000000   Number         0  roletrns.o ABSOLUTE
    ..\\RSTP\\src\\statmch.c                 0x00000000   Number         0  statmch.o ABSOLUTE
    ..\\RSTP\\src\\stp_in.c                  0x00000000   Number         0  stp_in.o ABSOLUTE
    ..\\RSTP\\src\\stp_to.c                  0x00000000   Number         0  stp_to.o ABSOLUTE
    ..\\RSTP\\src\\stpm.c                    0x00000000   Number         0  stpm.o ABSOLUTE
    ..\\RSTP\\src\\sttrans.c                 0x00000000   Number         0  sttrans.o ABSOLUTE
    ..\\RSTP\\src\\times.c                   0x00000000   Number         0  times.o ABSOLUTE
    ..\\RSTP\\src\\topoch.c                  0x00000000   Number         0  topoch.o ABSOLUTE
    ..\\RSTP\\src\\transmit.c                0x00000000   Number         0  transmit.o ABSOLUTE
    ..\\RSTP\\src\\vector.c                  0x00000000   Number         0  vector.o ABSOLUTE
    ..\\STM32F4xx_HAL_Driver\\Src\\stm32f4xx_hal.c 0x00000000   Number         0  stm32f4xx_hal.o ABSOLUTE
    ..\\STM32F4xx_HAL_Driver\\Src\\stm32f4xx_hal_adc.c 0x00000000   Number         0  stm32f4xx_hal_adc.o ABSOLUTE
    ..\\STM32F4xx_HAL_Driver\\Src\\stm32f4xx_hal_cortex.c 0x00000000   Number         0  stm32f4xx_hal_cortex.o ABSOLUTE
    ..\\STM32F4xx_HAL_Driver\\Src\\stm32f4xx_hal_dma.c 0x00000000   Number         0  stm32f4xx_hal_dma.o ABSOLUTE
    ..\\STM32F4xx_HAL_Driver\\Src\\stm32f4xx_hal_dma2d.c 0x00000000   Number         0  stm32f4xx_hal_dma2d.o ABSOLUTE
    ..\\STM32F4xx_HAL_Driver\\Src\\stm32f4xx_hal_dma_ex.c 0x00000000   Number         0  stm32f4xx_hal_dma_ex.o ABSOLUTE
    ..\\STM32F4xx_HAL_Driver\\Src\\stm32f4xx_hal_eth.c 0x00000000   Number         0  stm32f4xx_hal_eth.o ABSOLUTE
    ..\\STM32F4xx_HAL_Driver\\Src\\stm32f4xx_hal_flash.c 0x00000000   Number         0  stm32f4xx_hal_flash.o ABSOLUTE
    ..\\STM32F4xx_HAL_Driver\\Src\\stm32f4xx_hal_flash_ex.c 0x00000000   Number         0  stm32f4xx_hal_flash_ex.o ABSOLUTE
    ..\\STM32F4xx_HAL_Driver\\Src\\stm32f4xx_hal_gpio.c 0x00000000   Number         0  stm32f4xx_hal_gpio.o ABSOLUTE
    ..\\STM32F4xx_HAL_Driver\\Src\\stm32f4xx_hal_i2c.c 0x00000000   Number         0  stm32f4xx_hal_i2c.o ABSOLUTE
    ..\\STM32F4xx_HAL_Driver\\Src\\stm32f4xx_hal_i2c_ex.c 0x00000000   Number         0  stm32f4xx_hal_i2c_ex.o ABSOLUTE
    ..\\STM32F4xx_HAL_Driver\\Src\\stm32f4xx_hal_iwdg.c 0x00000000   Number         0  stm32f4xx_hal_iwdg.o ABSOLUTE
    ..\\STM32F4xx_HAL_Driver\\Src\\stm32f4xx_hal_nor.c 0x00000000   Number         0  stm32f4xx_hal_nor.o ABSOLUTE
    ..\\STM32F4xx_HAL_Driver\\Src\\stm32f4xx_hal_pwr.c 0x00000000   Number         0  stm32f4xx_hal_pwr.o ABSOLUTE
    ..\\STM32F4xx_HAL_Driver\\Src\\stm32f4xx_hal_pwr_ex.c 0x00000000   Number         0  stm32f4xx_hal_pwr_ex.o ABSOLUTE
    ..\\STM32F4xx_HAL_Driver\\Src\\stm32f4xx_hal_rcc.c 0x00000000   Number         0  stm32f4xx_hal_rcc.o ABSOLUTE
    ..\\STM32F4xx_HAL_Driver\\Src\\stm32f4xx_hal_rcc_ex.c 0x00000000   Number         0  stm32f4xx_hal_rcc_ex.o ABSOLUTE
    ..\\STM32F4xx_HAL_Driver\\Src\\stm32f4xx_hal_sdram.c 0x00000000   Number         0  stm32f4xx_hal_sdram.o ABSOLUTE
    ..\\STM32F4xx_HAL_Driver\\Src\\stm32f4xx_hal_tim.c 0x00000000   Number         0  stm32f4xx_hal_tim.o ABSOLUTE
    ..\\STM32F4xx_HAL_Driver\\Src\\stm32f4xx_hal_tim_ex.c 0x00000000   Number         0  stm32f4xx_hal_tim_ex.o ABSOLUTE
    ..\\STM32F4xx_HAL_Driver\\Src\\stm32f4xx_hal_uart.c 0x00000000   Number         0  stm32f4xx_hal_uart.o ABSOLUTE
    ..\\STM32F4xx_HAL_Driver\\Src\\stm32f4xx_ll_fmc.c 0x00000000   Number         0  stm32f4xx_ll_fmc.o ABSOLUTE
    ..\\STM32F4xx_HAL_Driver\\Src\\stm32f4xx_ll_fsmc.c 0x00000000   Number         0  stm32f4xx_ll_fsmc.o ABSOLUTE
    ..\\STM32F4xx_HAL_Driver\\re_src\\stm32f4xx_it.c 0x00000000   Number         0  stm32f4xx_it.o ABSOLUTE
    ..\\STM32F4xx_HAL_Driver\\re_src\\system_stm32f4xx.c 0x00000000   Number         0  system_stm32f4xx.o ABSOLUTE
    ..\\Utility\\Utility_src\\upload_file.c  0x00000000   Number         0  upload_file.o ABSOLUTE
    ..\\lwip\\lwip_src\\etharp.c             0x00000000   Number         0  etharp.o ABSOLUTE
    ..\\lwip\\lwip_src\\ethernetif.c         0x00000000   Number         0  ethernetif.o ABSOLUTE
    ..\\lwip\\lwip_src\\mib2.c               0x00000000   Number         0  mib2.o ABSOLUTE
    ..\\lwip\\lwip_src\\netif.c              0x00000000   Number         0  netif.o ABSOLUTE
    ..\\lwip\\lwip_src\\sys.c                0x00000000   Number         0  sys.o ABSOLUTE
    ..\\multicast\\multicast_src\\MulticastUtility.c 0x00000000   Number         0  multicastutility.o ABSOLUTE
    ..\\ntp\\ntp_src\\ntp_client.c           0x00000000   Number         0  ntp_client.o ABSOLUTE
    ..\\scr_code\\cgi\\src\\veth_COM.c       0x00000000   Number         0  veth_com.o ABSOLUTE
    ..\\scr_code\\cgi\\src\\veth_mac.c       0x00000000   Number         0  veth_mac.o ABSOLUTE
    ..\\scr_code\\cgi\\src\\veth_port.c      0x00000000   Number         0  veth_port.o ABSOLUTE
    ..\\scr_code\\cgi\\src\\veth_vlan.c      0x00000000   Number         0  veth_vlan.o ABSOLUTE
    ..\\scr_code\\main.c                     0x00000000   Number         0  main.o ABSOLUTE
    ..\\scr_code\\veth_InVariate.c           0x00000000   Number         0  veth_invariate.o ABSOLUTE
    ..\\scr_code\\veth_RSTP.c                0x00000000   Number         0  veth_rstp.o ABSOLUTE
    ..\\scr_code\\veth_com_usart.c           0x00000000   Number         0  veth_com_usart.o ABSOLUTE
    ..\\scr_code\\veth_eth_ap.c              0x00000000   Number         0  veth_eth_ap.o ABSOLUTE
    ..\\scr_code\\veth_hal_init.c            0x00000000   Number         0  veth_hal_init.o ABSOLUTE
    ..\\scr_code\\veth_m_4pse.c              0x00000000   Number         0  veth_m_4pse.o ABSOLUTE
    ..\\scr_code\\veth_marvell_6097f.c       0x00000000   Number         0  veth_marvell_6097f.o ABSOLUTE
    ..\\scr_code\\veth_netupgrade.c          0x00000000   Number         0  veth_netupgrade.o ABSOLUTE
    ..\\scr_code\\veth_sdram.c               0x00000000   Number         0  veth_sdram.o ABSOLUTE
    ..\\scr_code\\veth_serial.c              0x00000000   Number         0  veth_serial.o ABSOLUTE
    ..\\scr_code\\veth_system_clock.c        0x00000000   Number         0  veth_system_clock.o ABSOLUTE
    ..\\serialclient\\serialclient_src\\SerialClient.c 0x00000000   Number         0  serialclient.o ABSOLUTE
    ..\\serialclient\\serialclient_src\\SerialClientUdp.c 0x00000000   Number         0  serialclientudp.o ABSOLUTE
    ..\\serialserver\\serialserver_src\\SerialServer.c 0x00000000   Number         0  serialserver.o ABSOLUTE
    ..\\serialserver\\serialserver_src\\SerialServerUdp.c 0x00000000   Number         0  serialserverudp.o ABSOLUTE
    ..\\serialutility\\serialutility_src\\SerialQueue.c 0x00000000   Number         0  serialqueue.o ABSOLUTE
    ..\\serialutility\\serialutility_src\\SerialUtility.c 0x00000000   Number         0  serialutility.o ABSOLUTE
    ..\\session\\session_src\\Session.c      0x00000000   Number         0  session.o ABSOLUTE
    ..\\systemlog\\systemlog_src\\LogInfo.c  0x00000000   Number         0  loginfo.o ABSOLUTE
    ..\\systemlog\\systemlog_src\\LogUtility.c 0x00000000   Number         0  logutility.o ABSOLUTE
    ..\\webserver\\webserver_src\\board_info.c 0x00000000   Number         0  board_info.o ABSOLUTE
    ..\\webserver\\webserver_src\\fs.c       0x00000000   Number         0  fs.o ABSOLUTE
    ..\\webserver\\webserver_src\\httpd-cgi.c 0x00000000   Number         0  httpd-cgi.o ABSOLUTE
    ..\\webserver\\webserver_src\\httpd.c    0x00000000   Number         0  httpd.o ABSOLUTE
    ..\\webserver\\webserver_src\\ip_config.c 0x00000000   Number         0  ip_config.o ABSOLUTE
    ..\\webserver\\webserver_src\\mac.c      0x00000000   Number         0  mac.o ABSOLUTE
    ..\\webserver\\webserver_src\\mac_link.c 0x00000000   Number         0  mac_link.o ABSOLUTE
    ..\\webserver\\webserver_src\\mac_table.c 0x00000000   Number         0  mac_table.o ABSOLUTE
    ..\\webserver\\webserver_src\\ports.c    0x00000000   Number         0  ports.o ABSOLUTE
    ..\\webserver\\webserver_src\\system_info.c 0x00000000   Number         0  system_info.o ABSOLUTE
    ..\\webserver\\webserver_src\\system_maintain.c 0x00000000   Number         0  system_maintain.o ABSOLUTE
    ..\\webserver\\webserver_src\\user.c     0x00000000   Number         0  user.o ABSOLUTE
    ..\\webserver\\webserver_src\\vlan.c     0x00000000   Number         0  vlan.o ABSOLUTE
    ..\\webserver\\webserver_src\\vlan_link.c 0x00000000   Number         0  vlan_link.o ABSOLUTE
    ..\\webserver\\webserver_src\\web_main.c 0x00000000   Number         0  web_main.o ABSOLUTE
    ..\lwip\lwip_src\asn1_dec.c              0x00000000   Number         0  asn1_dec.o ABSOLUTE
    ..\lwip\lwip_src\asn1_enc.c              0x00000000   Number         0  asn1_enc.o ABSOLUTE
    ..\lwip\lwip_src\autoip.c                0x00000000   Number         0  autoip.o ABSOLUTE
    ..\lwip\lwip_src\def.c                   0x00000000   Number         0  def.o ABSOLUTE
    ..\lwip\lwip_src\dhcp.c                  0x00000000   Number         0  dhcp.o ABSOLUTE
    ..\lwip\lwip_src\dns.c                   0x00000000   Number         0  dns.o ABSOLUTE
    ..\lwip\lwip_src\etharp.c                0x00000000   Number         0  etharp.o ABSOLUTE
    ..\lwip\lwip_src\ethernetif.c            0x00000000   Number         0  ethernetif.o ABSOLUTE
    ..\lwip\lwip_src\icmp.c                  0x00000000   Number         0  icmp.o ABSOLUTE
    ..\lwip\lwip_src\igmp.c                  0x00000000   Number         0  igmp.o ABSOLUTE
    ..\lwip\lwip_src\inet.c                  0x00000000   Number         0  inet.o ABSOLUTE
    ..\lwip\lwip_src\inet_chksum.c           0x00000000   Number         0  inet_chksum.o ABSOLUTE
    ..\lwip\lwip_src\init.c                  0x00000000   Number         0  init.o ABSOLUTE
    ..\lwip\lwip_src\ip.c                    0x00000000   Number         0  ip.o ABSOLUTE
    ..\lwip\lwip_src\ip_addr.c               0x00000000   Number         0  ip_addr.o ABSOLUTE
    ..\lwip\lwip_src\ip_frag.c               0x00000000   Number         0  ip_frag.o ABSOLUTE
    ..\lwip\lwip_src\mem.c                   0x00000000   Number         0  mem.o ABSOLUTE
    ..\lwip\lwip_src\memp.c                  0x00000000   Number         0  memp.o ABSOLUTE
    ..\lwip\lwip_src\mib2.c                  0x00000000   Number         0  mib2.o ABSOLUTE
    ..\lwip\lwip_src\mib_structs.c           0x00000000   Number         0  mib_structs.o ABSOLUTE
    ..\lwip\lwip_src\msg_in.c                0x00000000   Number         0  msg_in.o ABSOLUTE
    ..\lwip\lwip_src\msg_out.c               0x00000000   Number         0  msg_out.o ABSOLUTE
    ..\lwip\lwip_src\netif.c                 0x00000000   Number         0  netif.o ABSOLUTE
    ..\lwip\lwip_src\pbuf.c                  0x00000000   Number         0  pbuf.o ABSOLUTE
    ..\lwip\lwip_src\raw.c                   0x00000000   Number         0  raw.o ABSOLUTE
    ..\lwip\lwip_src\slipif.c                0x00000000   Number         0  slipif.o ABSOLUTE
    ..\lwip\lwip_src\stats.c                 0x00000000   Number         0  stats.o ABSOLUTE
    ..\lwip\lwip_src\sys.c                   0x00000000   Number         0  sys.o ABSOLUTE
    ..\lwip\lwip_src\tcp.c                   0x00000000   Number         0  tcp.o ABSOLUTE
    ..\lwip\lwip_src\tcp_in.c                0x00000000   Number         0  tcp_in.o ABSOLUTE
    ..\lwip\lwip_src\tcp_out.c               0x00000000   Number         0  tcp_out.o ABSOLUTE
    ..\lwip\lwip_src\timers.c                0x00000000   Number         0  timers.o ABSOLUTE
    ..\lwip\lwip_src\udp.c                   0x00000000   Number         0  udp.o ABSOLUTE
    ..\multicast\multicast_src\MulticastUtility.c 0x00000000   Number         0  multicastutility.o ABSOLUTE
    ..\ntp\ntp_src\ntp_client.c              0x00000000   Number         0  ntp_client.o ABSOLUTE
    ..\scr_code\FIFO.c                       0x00000000   Number         0  fifo.o ABSOLUTE
    ..\scr_code\cgi\src\veth_COM.c           0x00000000   Number         0  veth_com.o ABSOLUTE
    ..\scr_code\cgi\src\veth_mac.c           0x00000000   Number         0  veth_mac.o ABSOLUTE
    ..\scr_code\cgi\src\veth_port.c          0x00000000   Number         0  veth_port.o ABSOLUTE
    ..\scr_code\cgi\src\veth_vlan.c          0x00000000   Number         0  veth_vlan.o ABSOLUTE
    ..\scr_code\main.c                       0x00000000   Number         0  main.o ABSOLUTE
    ..\scr_code\veth_InVariate.c             0x00000000   Number         0  veth_invariate.o ABSOLUTE
    ..\scr_code\veth_RSTP.c                  0x00000000   Number         0  veth_rstp.o ABSOLUTE
    ..\scr_code\veth_com_usart.c             0x00000000   Number         0  veth_com_usart.o ABSOLUTE
    ..\scr_code\veth_eth_ap.c                0x00000000   Number         0  veth_eth_ap.o ABSOLUTE
    ..\scr_code\veth_hal_init.c              0x00000000   Number         0  veth_hal_init.o ABSOLUTE
    ..\scr_code\veth_m_4pse.c                0x00000000   Number         0  veth_m_4pse.o ABSOLUTE
    ..\scr_code\veth_marvell_6097f.c         0x00000000   Number         0  veth_marvell_6097f.o ABSOLUTE
    ..\scr_code\veth_netupgrade.c            0x00000000   Number         0  veth_netupgrade.o ABSOLUTE
    ..\scr_code\veth_ntoh.c                  0x00000000   Number         0  veth_ntoh.o ABSOLUTE
    ..\scr_code\veth_sdram.c                 0x00000000   Number         0  veth_sdram.o ABSOLUTE
    ..\scr_code\veth_serial.c                0x00000000   Number         0  veth_serial.o ABSOLUTE
    ..\scr_code\veth_system_clock.c          0x00000000   Number         0  veth_system_clock.o ABSOLUTE
    ..\serialclient\serialclient_src\SerialClient.c 0x00000000   Number         0  serialclient.o ABSOLUTE
    ..\serialclient\serialclient_src\SerialClientUdp.c 0x00000000   Number         0  serialclientudp.o ABSOLUTE
    ..\serialserver\serialserver_src\SerialServer.c 0x00000000   Number         0  serialserver.o ABSOLUTE
    ..\serialserver\serialserver_src\SerialServerUdp.c 0x00000000   Number         0  serialserverudp.o ABSOLUTE
    ..\serialutility\serialutility_src\SerialQueue.c 0x00000000   Number         0  serialqueue.o ABSOLUTE
    ..\serialutility\serialutility_src\SerialUtility.c 0x00000000   Number         0  serialutility.o ABSOLUTE
    ..\session\session_src\Session.c         0x00000000   Number         0  session.o ABSOLUTE
    ..\systemlog\systemlog_src\LogInfo.c     0x00000000   Number         0  loginfo.o ABSOLUTE
    ..\systemlog\systemlog_src\LogUtility.c  0x00000000   Number         0  logutility.o ABSOLUTE
    ..\webserver\webserver_src\board_info.c  0x00000000   Number         0  board_info.o ABSOLUTE
    ..\webserver\webserver_src\crc16.c       0x00000000   Number         0  crc16.o ABSOLUTE
    ..\webserver\webserver_src\fs.c          0x00000000   Number         0  fs.o ABSOLUTE
    ..\webserver\webserver_src\gbk_conv_hanzi.c 0x00000000   Number         0  gbk_conv_hanzi.o ABSOLUTE
    ..\webserver\webserver_src\httpd-cgi.c   0x00000000   Number         0  httpd-cgi.o ABSOLUTE
    ..\webserver\webserver_src\httpd.c       0x00000000   Number         0  httpd.o ABSOLUTE
    ..\webserver\webserver_src\ip_config.c   0x00000000   Number         0  ip_config.o ABSOLUTE
    ..\webserver\webserver_src\mac.c         0x00000000   Number         0  mac.o ABSOLUTE
    ..\webserver\webserver_src\mac_link.c    0x00000000   Number         0  mac_link.o ABSOLUTE
    ..\webserver\webserver_src\mac_table.c   0x00000000   Number         0  mac_table.o ABSOLUTE
    ..\webserver\webserver_src\ports.c       0x00000000   Number         0  ports.o ABSOLUTE
    ..\webserver\webserver_src\request.c     0x00000000   Number         0  request.o ABSOLUTE
    ..\webserver\webserver_src\system_info.c 0x00000000   Number         0  system_info.o ABSOLUTE
    ..\webserver\webserver_src\system_maintain.c 0x00000000   Number         0  system_maintain.o ABSOLUTE
    ..\webserver\webserver_src\timer.c       0x00000000   Number         0  timer.o ABSOLUTE
    ..\webserver\webserver_src\user.c        0x00000000   Number         0  user.o ABSOLUTE
    ..\webserver\webserver_src\vlan.c        0x00000000   Number         0  vlan.o ABSOLUTE
    ..\webserver\webserver_src\vlan_link.c   0x00000000   Number         0  vlan_link.o ABSOLUTE
    ..\webserver\webserver_src\web_main.c    0x00000000   Number         0  web_main.o ABSOLUTE
    cdcmple.s                                0x00000000   Number         0  cdcmple.o ABSOLUTE
    cdrcmple.s                               0x00000000   Number         0  cdrcmple.o ABSOLUTE
    dc.s                                     0x00000000   Number         0  dc.o ABSOLUTE
    handlers.s                               0x00000000   Number         0  handlers.o ABSOLUTE
    init.s                                   0x00000000   Number         0  init.o ABSOLUTE
    startup_stm32f429x.s                     0x00000000   Number         0  startup_stm32f429x.o ABSOLUTE
    RESET                                    0x0800c000   Section      428  startup_stm32f429x.o(RESET)
    .ARM.Collect$$$$00000000                 0x0800c1ac   Section        0  entry.o(.ARM.Collect$$$$00000000)
    .ARM.Collect$$$$00000001                 0x0800c1ac   Section        4  entry2.o(.ARM.Collect$$$$00000001)
    .ARM.Collect$$$$00000004                 0x0800c1b0   Section        4  entry5.o(.ARM.Collect$$$$00000004)
    .ARM.Collect$$$$00000008                 0x0800c1b4   Section        0  entry7b.o(.ARM.Collect$$$$00000008)
    .ARM.Collect$$$$0000000A                 0x0800c1b4   Section        0  entry8b.o(.ARM.Collect$$$$0000000A)
    .ARM.Collect$$$$0000000B                 0x0800c1b4   Section        8  entry9a.o(.ARM.Collect$$$$0000000B)
    .ARM.Collect$$$$0000000D                 0x0800c1bc   Section        0  entry10a.o(.ARM.Collect$$$$0000000D)
    .ARM.Collect$$$$0000000F                 0x0800c1bc   Section        0  entry11a.o(.ARM.Collect$$$$0000000F)
    .ARM.Collect$$$$00002712                 0x0800c1bc   Section        4  entry2.o(.ARM.Collect$$$$00002712)
    __lit__00000000                          0x0800c1bc   Data           4  entry2.o(.ARM.Collect$$$$00002712)
    .text                                    0x0800c1c0   Section       36  startup_stm32f429x.o(.text)
    $v0                                      0x0800c1c0   Number         0  startup_stm32f429x.o(.text)
    .text                                    0x0800c1e4   Section        0  system_stm32f4xx.o(.text)
    SystemInit_ExtMemCtl                     0x0800c1e5   Thumb Code   570  system_stm32f4xx.o(.text)
    .text                                    0x0800c59c   Section        0  main.o(.text)
    .text                                    0x0800c9e4   Section        0  veth_com_usart.o(.text)
    displayIpCommand                         0x0800cc05   Thumb Code    58  veth_com_usart.o(.text)
    displayMacCommand                        0x0800cd1f   Thumb Code    58  veth_com_usart.o(.text)
    .text                                    0x0800d924   Section        0  veth_eth_ap.o(.text)
    .text                                    0x0800dbb8   Section        0  veth_hal_init.o(.text)
    BSP_SDRAM_Initialization_Sequence        0x0800e5c3   Thumb Code   150  veth_hal_init.o(.text)
    .text                                    0x0800e9f0   Section        0  veth_invariate.o(.text)
    charToUint                               0x0800ebe1   Thumb Code    10  veth_invariate.o(.text)
    getIpNum                                 0x0800ed3f   Thumb Code    78  veth_invariate.o(.text)
    InVariate_Init                           0x0800f12b   Thumb Code    62  veth_invariate.o(.text)
    .text                                    0x0800f39c   Section        0  veth_m_4pse.o(.text)
    getPseChipNum                            0x0800f39d   Thumb Code    38  veth_m_4pse.o(.text)
    .text                                    0x0800f9e4   Section        0  veth_marvell_6097f.o(.text)
    .text                                    0x08011710   Section        0  veth_system_clock.o(.text)
    .text                                    0x08011798   Section        0  stm32f4xx_it.o(.text)
    .text                                    0x080118a0   Section        0  veth_rstp.o(.text)
    printfStatus                             0x080118a1   Thumb Code    10  veth_rstp.o(.text)
    timerExpiredOneSecond                    0x08011933   Thumb Code   186  veth_rstp.o(.text)
    .text                                    0x08011ad0   Section        0  veth_ntoh.o(.text)
    .text                                    0x08011ba4   Section        0  veth_serial.o(.text)
    Delayserial                              0x08011ba5   Thumb Code    18  veth_serial.o(.text)
    getUartRecievedData                      0x080137e5   Thumb Code   384  veth_serial.o(.text)
    uartDmaRcvCpltCallback                   0x08013965   Thumb Code   408  veth_serial.o(.text)
    UART_WaitOnFlagUntilTimeout              0x08013d47   Thumb Code   350  veth_serial.o(.text)
    .text                                    0x08014478   Section        0  fifo.o(.text)
    .text                                    0x080145dc   Section        0  edge.o(.text)
    .text                                    0x080146f0   Section        0  migrate.o(.text)
    .text                                    0x0801488c   Section        0  p2p.o(.text)
    computeP2P                               0x080148a3   Thumb Code    40  p2p.o(.text)
    .text                                    0x0801495c   Section        0  pcost.o(.text)
    computeAutoPCost                         0x08014973   Thumb Code   122  pcost.o(.text)
    updPortPathCost                          0x080149ed   Thumb Code     2  pcost.o(.text)
    .text                                    0x08014ae0   Section        0  port.o(.text)
    .text                                    0x08014edc   Section        0  portinfo.o(.text)
    rcvBpdu                                  0x08014ef3   Thumb Code   214  portinfo.o(.text)
    recordProposed                           0x08014fc9   Thumb Code    38  portinfo.o(.text)
    setTcFlags                               0x08014fef   Thumb Code    46  portinfo.o(.text)
    updtBPDUVersion                          0x0801501d   Thumb Code    50  portinfo.o(.text)
    updtRcvdInfoWhile                        0x0801504f   Thumb Code    82  portinfo.o(.text)
    .text                                    0x08015448   Section        0  rolesel.o(.text)
    _is_backup_port                          0x0801545f   Thumb Code    28  rolesel.o(.text)
    setRoleSelected                          0x0801547b   Thumb Code    70  rolesel.o(.text)
    updtRoleDisableBridge                    0x080154c1   Thumb Code    20  rolesel.o(.text)
    clearReselectBridge                      0x080154d5   Thumb Code    20  rolesel.o(.text)
    updtRootPrio                             0x080154e9   Thumb Code   140  rolesel.o(.text)
    updtRolesBridge                          0x08015575   Thumb Code   370  rolesel.o(.text)
    setSelectedBridge                        0x080156e7   Thumb Code    42  rolesel.o(.text)
    .text                                    0x08015890   Section        0  roletrns.o(.text)
    setSyncBridge                            0x080158a7   Thumb Code    24  roletrns.o(.text)
    setReRootBridge                          0x080158bf   Thumb Code    24  roletrns.o(.text)
    compute_all_synced                       0x080158d7   Thumb Code    44  roletrns.o(.text)
    compute_re_rooted                        0x08015903   Thumb Code    42  roletrns.o(.text)
    .text                                    0x08015e70   Section        0  statmch.o(.text)
    .text                                    0x08015f54   Section        0  stp_in.o(.text)
    _stpapi_port_find                        0x0801607f   Thumb Code    30  stp_in.o(.text)
    _conv_br_id_2_uid                        0x0801609d   Thumb Code    10  stp_in.o(.text)
    _check_stpm_config                       0x080160a7   Thumb Code   120  stp_in.o(.text)
    _stp_in_enable_port_on_stpm              0x0801611f   Thumb Code    86  stp_in.o(.text)
    .text                                    0x08016b54   Section        0  stp_to.o(.text)
    .text                                    0x08016c84   Section        0  stpm.o(.text)
    _stp_stpm_init_machine                   0x08016c8b   Thumb Code    20  stpm.o(.text)
    _stp_stpm_iterate_machines               0x08016c9f   Thumb Code    90  stpm.o(.text)
    _check_topoch                            0x08016d25   Thumb Code    24  stpm.o(.text)
    printfFlashStatus                        0x08016ded   Thumb Code    26  stpm.o(.text)
    .text                                    0x080170e8   Section        0  sttrans.o(.text)
    .text                                    0x080171f4   Section        0  times.o(.text)
    .text                                    0x08017310   Section        0  topoch.o(.text)
    setTcPropBridge                          0x08017327   Thumb Code    60  topoch.o(.text)
    newTcWhile                               0x08017363   Thumb Code    32  topoch.o(.text)
    .text                                    0x08017588   Section        0  transmit.o(.text)
    build_bpdu_header                        0x0801759f   Thumb Code    68  transmit.o(.text)
    txTcn                                    0x080175e3   Thumb Code    60  transmit.o(.text)
    build_config_bpdu                        0x0801761f   Thumb Code    78  transmit.o(.text)
    txConfig                                 0x0801766d   Thumb Code    68  transmit.o(.text)
    txRstp                                   0x080176b1   Thumb Code   166  transmit.o(.text)
    .text                                    0x08017944   Section        0  vector.o(.text)
    stp_vect_get_short                       0x080179ff   Thumb Code    12  vector.o(.text)
    stp_vect_set_short                       0x08017a0b   Thumb Code    16  vector.o(.text)
    stp_vect_get_bridge_id                   0x08017a1b   Thumb Code    28  vector.o(.text)
    stp_vect_set_bridge_id                   0x08017a37   Thumb Code    28  vector.o(.text)
    .text                                    0x08017ab4   Section        0  veth_netupgrade.o(.text)
    .text                                    0x08017b18   Section        0  veth_mac.o(.text)
    macDecreaseByOne                         0x08017b3b   Thumb Code    36  veth_mac.o(.text)
    .text                                    0x080182a0   Section        0  veth_port.o(.text)
    printRoughCounter                        0x080183dd   Thumb Code    62  veth_port.o(.text)
    printDetailCounter                       0x0801841b   Thumb Code  1304  veth_port.o(.text)
    .text                                    0x08019058   Section        0  veth_vlan.o(.text)
    .text                                    0x08019264   Section        0  veth_com.o(.text)
    .text                                    0x08019504   Section        0  stm32f4xx_hal.o(.text)
    .text                                    0x08019658   Section        0  stm32f4xx_hal_cortex.o(.text)
    NVIC_SetPriority                         0x08019659   Thumb Code    32  stm32f4xx_hal_cortex.o(.text)
    NVIC_GetPriorityGrouping                 0x080198e3   Thumb Code    12  stm32f4xx_hal_cortex.o(.text)
    .text                                    0x08019904   Section        0  stm32f4xx_hal_dma.o(.text)
    DMA_SetConfig                            0x0801a989   Thumb Code    32  stm32f4xx_hal_dma.o(.text)
    .text                                    0x08021494   Section        0  stm32f4xx_hal_dma_ex.o(.text)
    DMA_MultiBufferSetConfig                 0x08021495   Thumb Code    44  stm32f4xx_hal_dma_ex.o(.text)
    .text                                    0x080216e8   Section        0  stm32f4xx_hal_eth.o(.text)
    ETH_MACAddressConfig                     0x080216e9   Thumb Code    48  stm32f4xx_hal_eth.o(.text)
    ETH_MACDMAConfig                         0x08021719   Thumb Code   566  stm32f4xx_hal_eth.o(.text)
    ETH_DMAReceptionEnable                   0x08021fd7   Thumb Code    22  stm32f4xx_hal_eth.o(.text)
    ETH_DMATransmissionEnable                0x08021fed   Thumb Code    22  stm32f4xx_hal_eth.o(.text)
    ETH_FlushTransmitFIFO                    0x08022003   Thumb Code    56  stm32f4xx_hal_eth.o(.text)
    ETH_MACReceptionEnable                   0x0802203b   Thumb Code    40  stm32f4xx_hal_eth.o(.text)
    ETH_MACTransmissionEnable                0x08022063   Thumb Code    40  stm32f4xx_hal_eth.o(.text)
    ETH_MACTransmissionDisable               0x080220dd   Thumb Code    40  stm32f4xx_hal_eth.o(.text)
    ETH_MACReceptionDisable                  0x08022105   Thumb Code    40  stm32f4xx_hal_eth.o(.text)
    ETH_DMAReceptionDisable                  0x0802212d   Thumb Code    22  stm32f4xx_hal_eth.o(.text)
    ETH_DMATransmissionDisable               0x08022143   Thumb Code    22  stm32f4xx_hal_eth.o(.text)
    .text                                    0x080223b8   Section        0  stm32f4xx_hal_flash.o(.text)
    FLASH_SetErrorCode                       0x080223b9   Thumb Code   164  stm32f4xx_hal_flash.o(.text)
    FLASH_Program_DoubleWord                 0x08022499   Thumb Code    44  stm32f4xx_hal_flash.o(.text)
    FLASH_Program_Word                       0x080224c5   Thumb Code    40  stm32f4xx_hal_flash.o(.text)
    FLASH_Program_HalfWord                   0x080224ed   Thumb Code    40  stm32f4xx_hal_flash.o(.text)
    FLASH_Program_Byte                       0x08022515   Thumb Code    36  stm32f4xx_hal_flash.o(.text)
    .text                                    0x08022838   Section        0  stm32f4xx_hal_flash_ex.o(.text)
    FLASH_MassErase                          0x080228a1   Thumb Code    88  stm32f4xx_hal_flash_ex.o(.text)
    FLASH_OB_BOR_LevelConfig                 0x08022a1d   Thumb Code    30  stm32f4xx_hal_flash_ex.o(.text)
    FLASH_OB_UserConfig                      0x08022a3b   Thumb Code    58  stm32f4xx_hal_flash_ex.o(.text)
    FLASH_OB_RDP_LevelConfig                 0x08022a75   Thumb Code    28  stm32f4xx_hal_flash_ex.o(.text)
    FLASH_OB_DisableWRP                      0x08022a91   Thumb Code   146  stm32f4xx_hal_flash_ex.o(.text)
    FLASH_OB_EnableWRP                       0x08022b23   Thumb Code   138  stm32f4xx_hal_flash_ex.o(.text)
    FLASH_OB_GetBOR                          0x08022c59   Thumb Code    10  stm32f4xx_hal_flash_ex.o(.text)
    FLASH_OB_GetUser                         0x08022c63   Thumb Code    10  stm32f4xx_hal_flash_ex.o(.text)
    FLASH_OB_GetRDP                          0x08022c6d   Thumb Code    16  stm32f4xx_hal_flash_ex.o(.text)
    FLASH_OB_GetWRP                          0x08022c7d   Thumb Code     8  stm32f4xx_hal_flash_ex.o(.text)
    FLASH_OB_BootConfig                      0x08022ca7   Thumb Code    42  stm32f4xx_hal_flash_ex.o(.text)
    FLASH_OB_DisablePCROP                    0x08022cd1   Thumb Code    98  stm32f4xx_hal_flash_ex.o(.text)
    FLASH_OB_EnablePCROP                     0x08022d33   Thumb Code   104  stm32f4xx_hal_flash_ex.o(.text)
    .text                                    0x08022e34   Section        0  stm32f4xx_hal_gpio.o(.text)
    .text                                    0x080231bc   Section        0  stm32f4xx_hal_i2c.o(.text)
    I2C_WaitOnFlagUntilTimeout               0x0802330b   Thumb Code   210  stm32f4xx_hal_i2c.o(.text)
    I2C_WaitOnMasterAddressFlagUntilTimeout  0x080233dd   Thumb Code   172  stm32f4xx_hal_i2c.o(.text)
    I2C_MasterRequestWrite                   0x08023489   Thumb Code   140  stm32f4xx_hal_i2c.o(.text)
    I2C_MasterRequestRead                    0x08023637   Thumb Code   242  stm32f4xx_hal_i2c.o(.text)
    I2C_DMAError                             0x08023e5b   Thumb Code    48  stm32f4xx_hal_i2c.o(.text)
    I2C_DMAMasterTransmitCplt                0x08023e8d   Thumb Code   114  stm32f4xx_hal_i2c.o(.text)
    I2C_DMAMasterReceiveCplt                 0x08023fc9   Thumb Code   112  stm32f4xx_hal_i2c.o(.text)
    I2C_DMASlaveTransmitCplt                 0x08024121   Thumb Code   128  stm32f4xx_hal_i2c.o(.text)
    I2C_DMASlaveReceiveCplt                  0x080242a7   Thumb Code   134  stm32f4xx_hal_i2c.o(.text)
    I2C_RequestMemoryWrite                   0x080243e1   Thumb Code   170  stm32f4xx_hal_i2c.o(.text)
    I2C_RequestMemoryRead                    0x08024599   Thumb Code   292  stm32f4xx_hal_i2c.o(.text)
    I2C_DMAMemTransmitCplt                   0x08024aa9   Thumb Code   116  stm32f4xx_hal_i2c.o(.text)
    I2C_DMAMemReceiveCplt                    0x08024bf7   Thumb Code   112  stm32f4xx_hal_i2c.o(.text)
    I2C_SlaveReceive_BTF                     0x08024ec1   Thumb Code    62  stm32f4xx_hal_i2c.o(.text)
    I2C_SlaveReceive_RXNE                    0x08024eff   Thumb Code    62  stm32f4xx_hal_i2c.o(.text)
    I2C_SlaveTransmit_BTF                    0x08024f3d   Thumb Code    60  stm32f4xx_hal_i2c.o(.text)
    I2C_SlaveTransmit_TXE                    0x08024f79   Thumb Code    60  stm32f4xx_hal_i2c.o(.text)
    I2C_Slave_STOPF                          0x08024fb5   Thumb Code   128  stm32f4xx_hal_i2c.o(.text)
    I2C_Slave_ADDR                           0x08025035   Thumb Code    50  stm32f4xx_hal_i2c.o(.text)
    I2C_MasterReceive_BTF                    0x08025067   Thumb Code   252  stm32f4xx_hal_i2c.o(.text)
    I2C_MasterReceive_RXNE                   0x08025163   Thumb Code   202  stm32f4xx_hal_i2c.o(.text)
    I2C_MasterTransmit_BTF                   0x0802522d   Thumb Code   158  stm32f4xx_hal_i2c.o(.text)
    I2C_MasterTransmit_TXE                   0x080252cb   Thumb Code    72  stm32f4xx_hal_i2c.o(.text)
    I2C_Slave_AF                             0x08025483   Thumb Code   110  stm32f4xx_hal_i2c.o(.text)
    .text                                    0x080255f8   Section        0  stm32f4xx_hal_nor.o(.text)
    .text                                    0x08025b4c   Section        0  stm32f4xx_hal_rcc.o(.text)
    .text                                    0x08026570   Section        0  stm32f4xx_hal_sdram.o(.text)
    .text                                    0x080269a4   Section        0  stm32f4xx_hal_tim.o(.text)
    TIM_DMAPeriodElapsedCplt                 0x08026b99   Thumb Code    20  stm32f4xx_hal_tim.o(.text)
    TIM_OC4_SetConfig                        0x08028235   Thumb Code    88  stm32f4xx_hal_tim.o(.text)
    TIM_OC3_SetConfig                        0x0802828d   Thumb Code   140  stm32f4xx_hal_tim.o(.text)
    TIM_OC1_SetConfig                        0x08028389   Thumb Code   102  stm32f4xx_hal_tim.o(.text)
    TIM_TI4_SetConfig                        0x08028463   Thumb Code    52  stm32f4xx_hal_tim.o(.text)
    TIM_TI3_SetConfig                        0x08028497   Thumb Code    50  stm32f4xx_hal_tim.o(.text)
    TIM_TI2_SetConfig                        0x080284c9   Thumb Code    52  stm32f4xx_hal_tim.o(.text)
    TIM_DMATriggerCplt                       0x08028893   Thumb Code    20  stm32f4xx_hal_tim.o(.text)
    TIM_ETR_SetConfig                        0x08028bd9   Thumb Code    24  stm32f4xx_hal_tim.o(.text)
    TIM_ITRx_SetConfig                       0x08028cd3   Thumb Code    46  stm32f4xx_hal_tim.o(.text)
    TIM_TI1_ConfigInputStage                 0x08028d01   Thumb Code    42  stm32f4xx_hal_tim.o(.text)
    TIM_TI2_ConfigInputStage                 0x08028d2b   Thumb Code    44  stm32f4xx_hal_tim.o(.text)
    .text                                    0x08028ff4   Section        0  stm32f4xx_hal_tim_ex.o(.text)
    TIM_CCxNChannelCmd                       0x08029275   Thumb Code    28  stm32f4xx_hal_tim_ex.o(.text)
    .text                                    0x08029d4c   Section        0  stm32f4xx_hal_uart.o(.text)
    UART_SetConfig                           0x08029d4d   Thumb Code   544  stm32f4xx_hal_uart.o(.text)
    UART_WaitOnFlagUntilTimeout              0x0802a17b   Thumb Code   250  stm32f4xx_hal_uart.o(.text)
    UART_DMAError                            0x0802a573   Thumb Code    38  stm32f4xx_hal_uart.o(.text)
    UART_DMATxHalfCplt                       0x0802a59b   Thumb Code    14  stm32f4xx_hal_uart.o(.text)
    UART_DMATransmitCplt                     0x0802a5ab   Thumb Code    82  stm32f4xx_hal_uart.o(.text)
    UART_DMARxHalfCplt                       0x0802a6a3   Thumb Code    14  stm32f4xx_hal_uart.o(.text)
    UART_DMAReceiveCplt                      0x0802a6b3   Thumb Code    52  stm32f4xx_hal_uart.o(.text)
    UART_Transmit_IT                         0x0802a8db   Thumb Code   198  stm32f4xx_hal_uart.o(.text)
    UART_Receive_IT                          0x0802a9a1   Thumb Code   698  stm32f4xx_hal_uart.o(.text)
    .text                                    0x0802af3c   Section        0  stm32f4xx_ll_fmc.o(.text)
    .text                                    0x0802b428   Section        0  stm32f4xx_hal_iwdg.o(.text)
    .text                                    0x0802b504   Section        0  asn1_dec.o(.text)
    .text                                    0x0802b9ec   Section        0  asn1_enc.o(.text)
    .text                                    0x0802bdc4   Section        0  def.o(.text)
    .text                                    0x0802bfa0   Section        0  igmp.o(.text)
    igmp_lookup_group                        0x0802bff9   Thumb Code    84  igmp.o(.text)
    igmp_start_timer                         0x0802c0e9   Thumb Code    30  igmp.o(.text)
    igmp_delaying_member                     0x0802c107   Thumb Code    42  igmp.o(.text)
    igmp_remove_group                        0x0802c155   Thumb Code    68  igmp.o(.text)
    igmp_ip_output_if                        0x0802c3a1   Thumb Code    74  igmp.o(.text)
    igmp_send                                0x0802c3eb   Thumb Code   176  igmp.o(.text)
    igmp_timeout                             0x0802c6a3   Thumb Code    48  igmp.o(.text)
    .text                                    0x0802c86c   Section        0  init.o(.text)
    .text                                    0x0802c894   Section        0  mib_structs.o(.text)
    push_node                                0x0802c895   Thumb Code    80  mib_structs.o(.text)
    pop_node                                 0x0802c8e5   Thumb Code    44  mib_structs.o(.text)
    empty_table                              0x0802ce2d   Thumb Code    68  mib_structs.o(.text)
    .text                                    0x0802d420   Section        0  mib2.o(.text)
    ocstrncpy                                0x0802d421   Thumb Code    24  mib2.o(.text)
    ip_ntomentry_get_value                   0x0802d541   Thumb Code   160  mib2.o(.text)
    ip_ntomentry_get_object_def              0x0802d5e1   Thumb Code   160  mib2.o(.text)
    atentry_get_value                        0x0802d681   Thumb Code   148  mib2.o(.text)
    atentry_get_object_def                   0x0802d715   Thumb Code   106  mib2.o(.text)
    ip_addrentry_get_value                   0x0802dab9   Thumb Code   170  mib2.o(.text)
    ip_addrentry_get_object_def              0x0802db63   Thumb Code   148  mib2.o(.text)
    ip_rteentry_get_value                    0x0802de01   Thumb Code   314  mib2.o(.text)
    ip_rteentry_get_object_def               0x0802df3b   Thumb Code   208  mib2.o(.text)
    udpentry_get_value                       0x0802e3b5   Thumb Code   188  mib2.o(.text)
    udpentry_get_object_def                  0x0802e471   Thumb Code    84  mib2.o(.text)
    system_get_object_def                    0x0802e8c3   Thumb Code   246  mib2.o(.text)
    system_get_value                         0x0802e9b9   Thumb Code   166  mib2.o(.text)
    system_set_test                          0x0802ea5f   Thumb Code   138  mib2.o(.text)
    system_set_value                         0x0802eae9   Thumb Code   364  mib2.o(.text)
    interfaces_get_object_def                0x0802ec55   Thumb Code    40  mib2.o(.text)
    interfaces_get_value                     0x0802ec7d   Thumb Code    24  mib2.o(.text)
    ifentry_get_object_def                   0x0802ec95   Thumb Code   314  mib2.o(.text)
    ifentry_get_value                        0x0802edcf   Thumb Code   598  mib2.o(.text)
    ip_get_object_def                        0x0802f025   Thumb Code   208  mib2.o(.text)
    ip_get_value                             0x0802f0f5   Thumb Code   288  mib2.o(.text)
    ip_set_test                              0x0802f215   Thumb Code   108  mib2.o(.text)
    icmp_get_object_def                      0x0802f281   Thumb Code    52  mib2.o(.text)
    icmp_get_value                           0x0802f2b5   Thumb Code   496  mib2.o(.text)
    tcp_get_object_def                       0x0802f4a5   Thumb Code   188  mib2.o(.text)
    tcp_get_value                            0x0802f561   Thumb Code   232  mib2.o(.text)
    udp_get_object_def                       0x0802f649   Thumb Code    52  mib2.o(.text)
    udp_get_value                            0x0802f67d   Thumb Code   118  mib2.o(.text)
    snmp_get_object_def                      0x0802f6f3   Thumb Code   216  mib2.o(.text)
    snmp_get_value                           0x0802f7cb   Thumb Code   458  mib2.o(.text)
    snmp_set_test                            0x0802f995   Thumb Code   110  mib2.o(.text)
    snmp_set_value                           0x0802fa03   Thumb Code    76  mib2.o(.text)
    .text                                    0x0802fa90   Section        0  msg_in.o(.text)
    snmp_ok_response                         0x0802fad7   Thumb Code    44  msg_in.o(.text)
    snmp_error_response                      0x0802fb03   Thumb Code   140  msg_in.o(.text)
    snmp_msg_set_event                       0x0802fb8f   Thumb Code   890  msg_in.o(.text)
    snmp_msg_get_event                       0x0802ff25   Thumb Code  1086  msg_in.o(.text)
    snmp_msg_getnext_event                   0x08030449   Thumb Code   674  msg_in.o(.text)
    snmp_pdu_dec_varbindlist                 0x0803072f   Thumb Code   998  msg_in.o(.text)
    snmp_pdu_header_check                    0x08030b15   Thumb Code   900  msg_in.o(.text)
    snmp_recv                                0x08030e99   Thumb Code   210  msg_in.o(.text)
    .text                                    0x08030ff4   Section        0  msg_out.o(.text)
    snmp_varbind_list_enc                    0x08031017   Thumb Code   308  msg_out.o(.text)
    snmp_resp_header_enc                     0x0803114b   Thumb Code   402  msg_out.o(.text)
    snmp_resp_header_sum                     0x080312dd   Thumb Code   204  msg_out.o(.text)
    snmp_varbind_list_sum                    0x080313a9   Thumb Code   250  msg_out.o(.text)
    snmp_trap_header_enc                     0x0803158b   Thumb Code   432  msg_out.o(.text)
    snmp_trap_header_sum                     0x0803173b   Thumb Code   262  msg_out.o(.text)
    .text                                    0x0803197c   Section        0  stats.o(.text)
    .text                                    0x080319c0   Section        0  sys.o(.text)
    .text                                    0x080319cc   Section        0  tcp.o(.text)
    tcp_close_shutdown                       0x080320e3   Thumb Code   482  tcp.o(.text)
    tcp_new_port                             0x08032735   Thumb Code    96  tcp.o(.text)
    tcp_accept_null                          0x08032931   Thumb Code     8  tcp.o(.text)
    tcp_kill_prio                            0x08032c3d   Thumb Code    80  tcp.o(.text)
    tcp_kill_timewait                        0x08032c8d   Thumb Code    54  tcp.o(.text)
    .text                                    0x08032fd0   Section        0  tcp_in.o(.text)
    tcp_receive                              0x08032fd1   Thumb Code  2404  tcp_in.o(.text)
    tcp_parseopt                             0x08033935   Thumb Code   202  tcp_in.o(.text)
    tcp_process                              0x080339ff   Thumb Code  1572  tcp_in.o(.text)
    tcp_listen_input                         0x08034023   Thumb Code   354  tcp_in.o(.text)
    tcp_timewait_input                       0x08034185   Thumb Code   140  tcp_in.o(.text)
    .text                                    0x08034990   Section        0  tcp_out.o(.text)
    tcp_output_alloc_header                  0x08034991   Thumb Code   152  tcp_out.o(.text)
    tcp_create_segment                       0x08034a29   Thumb Code   200  tcp_out.o(.text)
    tcp_pbuf_prealloc                        0x08034d07   Thumb Code   420  tcp_out.o(.text)
    tcp_write_checks                         0x08034eab   Thumb Code   218  tcp_out.o(.text)
    tcp_output_segment                       0x0803570b   Thumb Code   592  tcp_out.o(.text)
    .text                                    0x08035ee4   Section        0  timers.o(.text)
    tcpip_tcp_timer                          0x08035f97   Thumb Code    40  timers.o(.text)
    ip_reass_timer                           0x08035fe5   Thumb Code    26  timers.o(.text)
    arp_timer                                0x08035fff   Thumb Code    26  timers.o(.text)
    igmp_timer                               0x08036019   Thumb Code    24  timers.o(.text)
    .text                                    0x080361cc   Section        0  udp.o(.text)
    udp_new_port                             0x080361cf   Thumb Code    80  udp.o(.text)
    .text                                    0x080368fc   Section        0  etharp.o(.text)
    etharp_free_entry                        0x080368fd   Thumb Code   138  etharp.o(.text)
    etharp_find_entry                        0x08036a1b   Thumb Code   536  etharp.o(.text)
    etharp_send_ip                           0x08036c33   Thumb Code    94  etharp.o(.text)
    etharp_update_arp_entry                  0x08036c91   Thumb Code   546  etharp.o(.text)
    etharp_ip_input                          0x08036fbb   Thumb Code    92  etharp.o(.text)
    etharp_arp_input                         0x08037017   Thumb Code   426  etharp.o(.text)
    etharp_raw                               0x080371c1   Thumb Code   366  etharp.o(.text)
    etharp_output_to_arp_index               0x08037357   Thumb Code   146  etharp.o(.text)
    .text                                    0x080379b0   Section        0  ethernetif.o(.text)
    low_level_init                           0x080379b1   Thumb Code    82  ethernetif.o(.text)
    low_level_output                         0x08037a03   Thumb Code    90  ethernetif.o(.text)
    low_level_input                          0x08037a5d   Thumb Code   182  ethernetif.o(.text)
    .text                                    0x08037c40   Section        0  icmp.o(.text)
    icmp_send_response                       0x08037ef7   Thumb Code   186  icmp.o(.text)
    .text                                    0x0803813c   Section        0  inet_chksum.o(.text)
    lwip_standard_chksum                     0x0803813d   Thumb Code    94  inet_chksum.o(.text)
    .text                                    0x080383e8   Section        0  ip.o(.text)
    .text                                    0x08038a74   Section        0  ip_addr.o(.text)
    .text                                    0x08038d90   Section        0  ip_frag.o(.text)
    ip_reass_dequeue_datagram                0x08038d91   Thumb Code    64  ip_frag.o(.text)
    ip_reass_free_complete_datagram          0x08038dd1   Thumb Code   298  ip_frag.o(.text)
    ip_reass_remove_oldest_datagram          0x08038f33   Thumb Code   118  ip_frag.o(.text)
    ip_reass_enqueue_new_datagram            0x08038fa9   Thumb Code    96  ip_frag.o(.text)
    ip_reass_chain_frag_into_datagram_and_validate 0x08039009   Thumb Code   834  ip_frag.o(.text)
    ip_frag_alloc_pbuf_custom_ref            0x0803952d   Thumb Code    10  ip_frag.o(.text)
    ip_frag_free_pbuf_custom_ref             0x08039537   Thumb Code    46  ip_frag.o(.text)
    ipfrag_free_pbuf_custom                  0x08039565   Thumb Code    90  ip_frag.o(.text)
    .text                                    0x08039858   Section        0  mem.o(.text)
    plug_holes                               0x08039859   Thumb Code   234  mem.o(.text)
    .text                                    0x08039fa0   Section        0  memp.o(.text)
    .text                                    0x0803a190   Section        0  netif.o(.text)
    .text                                    0x0803a588   Section        0  pbuf.o(.text)
    .text                                    0x0803b59c   Section        0  raw.o(.text)
    .text                                    0x0803b7e0   Section        0  board_info.o(.text)
    .text                                    0x0803bcd4   Section        0  fs.o(.text)
    is_exist_session                         0x0803bcd5   Thumb Code    22  fs.o(.text)
    .text                                    0x0803be54   Section        0  web_main.o(.text)
    processSerialClientRemoteData            0x0803be55   Thumb Code   396  web_main.o(.text)
    checkFlashUpdate                         0x0803bfe1   Thumb Code    80  web_main.o(.text)
    ntpServerRequest                         0x0803c031   Thumb Code   112  web_main.o(.text)
    isNTPServerRequestTimeout                0x0803c0a1   Thumb Code    28  web_main.o(.text)
    modifyMaxPortConfig                      0x0803c0bd   Thumb Code    38  web_main.o(.text)
    initTimeout                              0x0803c0e3   Thumb Code    94  web_main.o(.text)
    addNetifList                             0x0803c141   Thumb Code   102  web_main.o(.text)
    initLWIPConfig                           0x0803c1a7   Thumb Code    42  web_main.o(.text)
    initSwitchChipConfig                     0x0803c1d1   Thumb Code   408  web_main.o(.text)
    modifyNetifLastChangeTime                0x0803c369   Thumb Code    36  web_main.o(.text)
    getPortsLinkStatus                       0x0803c38d   Thumb Code    48  web_main.o(.text)
    generatePortsLinkLog                     0x0803c3bd   Thumb Code   136  web_main.o(.text)
    checkPortsStatus                         0x0803c445   Thumb Code    20  web_main.o(.text)
    recordSystemRebootLog                    0x0803c459   Thumb Code   310  web_main.o(.text)
    deleteSessionTimeout                     0x0803c58f   Thumb Code    20  web_main.o(.text)
    isHasSessionTimeout                      0x0803c5a3   Thumb Code    40  web_main.o(.text)
    modifySnmpSystemClick                    0x0803c5cb   Thumb Code    30  web_main.o(.text)
    .text                                    0x0803c92c   Section        0  ip_config.o(.text)
    .text                                    0x0803cc54   Section        0  crc16.o(.text)
    .text                                    0x0803cc80   Section        0  httpd.o(.text)
    strnstr                                  0x0803cc81   Thumb Code    74  httpd.o(.text)
    http_ssi_state_alloc                     0x0803cccb   Thumb Code    28  httpd.o(.text)
    http_ssi_state_free                      0x0803cce7   Thumb Code    14  httpd.o(.text)
    vethSSIHandler                           0x0803ccf5   Thumb Code   188  httpd.o(.text)
    http_state_init                          0x0803cdb1   Thumb Code    18  httpd.o(.text)
    http_state_alloc                         0x0803cdc3   Thumb Code    22  httpd.o(.text)
    http_state_eof                           0x0803cdd9   Thumb Code    34  httpd.o(.text)
    http_state_free                          0x0803cdfb   Thumb Code    30  httpd.o(.text)
    http_write                               0x0803ce19   Thumb Code   130  httpd.o(.text)
    http_close_conn                          0x0803ce9b   Thumb Code    18  httpd.o(.text)
    http_eof                                 0x0803cead   Thumb Code    16  httpd.o(.text)
    http_send_data_nonssi                    0x0803cebd   Thumb Code   146  httpd.o(.text)
    get_tag_insert                           0x0803cf4f   Thumb Code   296  httpd.o(.text)
    http_send_data_ssi                       0x0803d077   Thumb Code  1848  httpd.o(.text)
    http_check_eof                           0x0803d7af   Thumb Code    82  httpd.o(.text)
    http_send_headers                        0x0803d801   Thumb Code   182  httpd.o(.text)
    http_send                                0x0803d8b7   Thumb Code   128  httpd.o(.text)
    http_poll                                0x0803d937   Thumb Code   106  httpd.o(.text)
    http_close_or_abort_conn                 0x0803d9c7   Thumb Code   126  httpd.o(.text)
    get_http_headers                         0x0803da45   Thumb Code   438  httpd.o(.text)
    http_get_404_file                        0x0803dbfb   Thumb Code    64  httpd.o(.text)
    http_init_file                           0x0803dc3b   Thumb Code   146  httpd.o(.text)
    http_find_file                           0x0803dccd   Thumb Code   238  httpd.o(.text)
    http_handle_post_finished                0x0803ddbb   Thumb Code    26  httpd.o(.text)
    http_post_rxpbuf                         0x0803de11   Thumb Code    56  httpd.o(.text)
    http_post_request                        0x0803dec3   Thumb Code   512  httpd.o(.text)
    http_parse_request                       0x0803e0c3   Thumb Code   656  httpd.o(.text)
    http_err                                 0x0803e353   Thumb Code    22  httpd.o(.text)
    http_sent                                0x0803e369   Thumb Code    40  httpd.o(.text)
    http_recv                                0x0803e391   Thumb Code   240  httpd.o(.text)
    http_accept                              0x0803e481   Thumb Code   410  httpd.o(.text)
    httpd_init_addr                          0x0803e61b   Thumb Code   154  httpd.o(.text)
    .text                                    0x0803e8c8   Section        0  httpd-cgi.o(.text)
    get_function_param                       0x0803f163   Thumb Code    46  httpd-cgi.o(.text)
    generate_file_stats                      0x0803f191   Thumb Code     6  httpd-cgi.o(.text)
    .text                                    0x0803f3c4   Section        0  ports.o(.text)
    .text                                    0x080405b0   Section        0  request.o(.text)
    .text                                    0x08040768   Section        0  timer.o(.text)
    .text                                    0x080407f4   Section        0  system_maintain.o(.text)
    .text                                    0x08040d30   Section        0  gbk_conv_hanzi.o(.text)
    .text                                    0x08040e14   Section        0  system_info.o(.text)
    .text                                    0x08041328   Section        0  mac_link.o(.text)
    .text                                    0x0804187c   Section        0  mac_table.o(.text)
    .text                                    0x08041b90   Section        0  mac.o(.text)
    .text                                    0x080425d0   Section        0  vlan.o(.text)
    .text                                    0x08043784   Section        0  vlan_link.o(.text)
    .text                                    0x0804389c   Section        0  user.o(.text)
    .text                                    0x080439b0   Section        0  ntp_client.o(.text)
    recordSystemStartTime                    0x080439b1   Thumb Code    78  ntp_client.o(.text)
    buildNTPUDPConnection                    0x08043b73   Thumb Code   106  ntp_client.o(.text)
    .text                                    0x08043de4   Section        0  cjson.o(.text)
    cJSON_strcasecmp                         0x08043deb   Thumb Code    76  cjson.o(.text)
    cJSON_strdup                             0x08043e37   Thumb Code    40  cjson.o(.text)
    cJSON_New_Item                           0x08043e8f   Thumb Code    26  cjson.o(.text)
    parse_number                             0x08043efb   Thumb Code   528  cjson.o(.text)
    pow2gt                                   0x0804410b   Thumb Code    28  cjson.o(.text)
    ensure                                   0x08044127   Thumb Code   104  cjson.o(.text)
    update                                   0x0804418f   Thumb Code    32  cjson.o(.text)
    print_number                             0x080441af   Thumb Code   544  cjson.o(.text)
    parse_hex4                               0x080443cf   Thumb Code   276  cjson.o(.text)
    parse_string                             0x080444e3   Thumb Code   526  cjson.o(.text)
    print_string_ptr                         0x080446f1   Thumb Code   442  cjson.o(.text)
    print_string                             0x080448ab   Thumb Code    16  cjson.o(.text)
    skip                                     0x080448bb   Thumb Code    18  cjson.o(.text)
    parse_object                             0x080448cd   Thumb Code   270  cjson.o(.text)
    parse_array                              0x080449db   Thumb Code   198  cjson.o(.text)
    parse_value                              0x08044aa1   Thumb Code   158  cjson.o(.text)
    print_object                             0x08044baf   Thumb Code  1076  cjson.o(.text)
    print_array                              0x08044fe3   Thumb Code   578  cjson.o(.text)
    print_value                              0x08045225   Thumb Code   302  cjson.o(.text)
    suffix_object                            0x080453df   Thumb Code     6  cjson.o(.text)
    create_reference                         0x080453e5   Thumb Code    48  cjson.o(.text)
    .text                                    0x08045a18   Section        0  jsonutility.o(.text)
    .text                                    0x0804685c   Section        0  upload_file.o(.text)
    .text                                    0x08046974   Section        0  findsubstring.o(.text)
    .text                                    0x08046a38   Section        0  stringhashtable.o(.text)
    .text                                    0x08046c10   Section        0  utility.o(.text)
    .text                                    0x08046c28   Section        0  loginfo.o(.text)
    .text                                    0x08046cdc   Section        0  logutility.o(.text)
    saveSystemLogTime                        0x08046cdd   Thumb Code    68  logutility.o(.text)
    .text                                    0x080471f0   Section        0  session.o(.text)
    .text                                    0x08047418   Section        0  serialqueue.o(.text)
    .text                                    0x0804751c   Section        0  serialutility.o(.text)
    closeSerialClientConnection              0x08047b81   Thumb Code    78  serialutility.o(.text)
    .text                                    0x0804873c   Section        0  serialclient.o(.text)
    macthSerialPCB                           0x08048767   Thumb Code    84  serialclient.o(.text)
    checkConnectionExist                     0x080489ed   Thumb Code   114  serialclient.o(.text)
    .text                                    0x08048cb8   Section        0  serialclientudp.o(.text)
    serialClientRecv                         0x08048cb9   Thumb Code     6  serialclientudp.o(.text)
    .text                                    0x08048ea0   Section        0  serialserver.o(.text)
    isExistZero                              0x08048ea1   Thumb Code    32  serialserver.o(.text)
    serialServerSent                         0x08048ec1   Thumb Code     4  serialserver.o(.text)
    serialServerRecv                         0x08048ec5   Thumb Code   202  serialserver.o(.text)
    processSerialServerAccept                0x08048f8f   Thumb Code   100  serialserver.o(.text)
    .text                                    0x08049214   Section        0  serialserverudp.o(.text)
    send_data                                0x08049215   Thumb Code     6  serialserverudp.o(.text)
    .text                                    0x080493a0   Section        0  ctype_o.o(.text)
    .text                                    0x080493a8   Section        0  isspace_o.o(.text)
    .text                                    0x080493ba   Section        0  tolower.o(.text)
    .text                                    0x080493c8   Section        0  rand.o(.text)
    .text                                    0x080493ec   Section        0  localtime.o(.text)
    .text                                    0x08049470   Section        0  memcpya.o(.text)
    .text                                    0x08049494   Section        0  memseta.o(.text)
    .text                                    0x080494b8   Section        0  strcat.o(.text)
    .text                                    0x080494d0   Section        0  strstr.o(.text)
    .text                                    0x080494f4   Section        0  strncpy.o(.text)
    .text                                    0x0804950c   Section        0  strchr.o(.text)
    .text                                    0x08049520   Section        0  strlen.o(.text)
    .text                                    0x0804952e   Section        0  strcmp.o(.text)
    .text                                    0x0804954a   Section        0  memcmp.o(.text)
    .text                                    0x08049564   Section        0  strcpy.o(.text)
    .text                                    0x08049576   Section        0  strncmp.o(.text)
    .text                                    0x08049594   Section        0  strtok.o(.text)
    .text                                    0x080495d8   Section        0  strrchr.o(.text)
    .text                                    0x080495f8   Section        0  calloc.o(.text)
    .text                                    0x08049614   Section        0  atoi.o(.text)
    .text                                    0x0804962e   Section        0  dadd.o(.text)
    .text                                    0x0804977c   Section        0  dmul.o(.text)
    .text                                    0x08049860   Section        0  ddiv.o(.text)
    .text                                    0x0804993e   Section        0  dflti.o(.text)
    .text                                    0x08049960   Section        0  dfltui.o(.text)
    .text                                    0x0804997a   Section        0  dfltul.o(.text)
    .text                                    0x08049992   Section        0  dfixi.o(.text)
    .text                                    0x080499d0   Section        0  f2d.o(.text)
    .text                                    0x080499f8   Section       40  cdcmple.o(.text)
    .text                                    0x08049a20   Section       40  cdrcmple.o(.text)
    .text                                    0x08049a48   Section        0  d2f.o(.text)
    .text                                    0x08049a80   Section        0  uidiv.o(.text)
    .text                                    0x08049aac   Section        0  uldiv.o(.text)
    .text                                    0x08049b0e   Section        0  llshl.o(.text)
    .text                                    0x08049b2c   Section        0  llushr.o(.text)
    .text                                    0x08049b4c   Section        0  llsshr.o(.text)
    .text                                    0x08049b70   Section        0  strtod.o(.text)
    _local_sscanf                            0x08049b71   Thumb Code    54  strtod.o(.text)
    .text                                    0x08049c0c   Section        0  strtol.o(.text)
    .text                                    0x08049c7c   Section        0  fepilogue.o(.text)
    .text                                    0x08049c7c   Section        0  iusefp.o(.text)
    .text                                    0x08049ce8   Section        0  depilogue.o(.text)
    .text                                    0x08049da6   Section        0  dscalb.o(.text)
    .text                                    0x08049dd4   Section        0  dfixul.o(.text)
    .text                                    0x08049e04   Section       36  init.o(.text)
    .text                                    0x08049e28   Section        0  scanf_fp.o(.text)
    _fp_value                                0x08049e29   Thumb Code   256  scanf_fp.o(.text)
    .text                                    0x0804a164   Section        0  _sgetc.o(.text)
    .text                                    0x0804a1a4   Section        0  _strtoul.o(.text)
    .text                                    0x0804a242   Section        0  dsqrt.o(.text)
    .text                                    0x0804a2e4   Section        0  _chval.o(.text)
    .text                                    0x0804a300   Section        0  __dclz77c.o(.text)
    i.__0fprintf                             0x0804a360   Section        0  printfa.o(i.__0fprintf)
    i.__0printf                              0x0804a37c   Section        0  printfa.o(i.__0printf)
    i.__0sprintf                             0x0804a39c   Section        0  printfa.o(i.__0sprintf)
    i.__ARM_fpclassify                       0x0804a3c4   Section        0  fpclassify.o(i.__ARM_fpclassify)
    i.__aeabi_errno_addr                     0x0804a3f4   Section        0  errno.o(i.__aeabi_errno_addr)
    i.__hardfp_atof                          0x0804a400   Section        0  atof.o(i.__hardfp_atof)
    i.__hardfp_fabs                          0x0804a438   Section        0  fabs.o(i.__hardfp_fabs)
    i.__hardfp_floor                         0x0804a450   Section        0  floor.o(i.__hardfp_floor)
    i.__hardfp_pow                           0x0804a568   Section        0  pow.o(i.__hardfp_pow)
    i.__kernel_poly                          0x0804b1f8   Section        0  poly.o(i.__kernel_poly)
    i.__mathlib_dbl_underflow                0x0804b2f0   Section        0  dunder.o(i.__mathlib_dbl_underflow)
    i.__read_errno                           0x0804b310   Section        0  errno.o(i.__read_errno)
    i.__scatterload_copy                     0x0804b31c   Section       14  handlers.o(i.__scatterload_copy)
    i.__scatterload_null                     0x0804b32a   Section        2  handlers.o(i.__scatterload_null)
    i.__scatterload_zeroinit                 0x0804b32c   Section       14  handlers.o(i.__scatterload_zeroinit)
    i.__set_errno                            0x0804b33c   Section        0  errno.o(i.__set_errno)
    i._fp_digits                             0x0804b348   Section        0  printfa.o(i._fp_digits)
    _fp_digits                               0x0804b349   Thumb Code   326  printfa.o(i._fp_digits)
    i._is_digit                              0x0804b4a4   Section        0  scanf_fp.o(i._is_digit)
    i._printf_core                           0x0804b4b4   Section        0  printfa.o(i._printf_core)
    _printf_core                             0x0804b4b5   Thumb Code  1762  printfa.o(i._printf_core)
    i._printf_post_padding                   0x0804bba4   Section        0  printfa.o(i._printf_post_padding)
    _printf_post_padding                     0x0804bba5   Thumb Code    38  printfa.o(i._printf_post_padding)
    i._printf_pre_padding                    0x0804bbca   Section        0  printfa.o(i._printf_pre_padding)
    _printf_pre_padding                      0x0804bbcb   Thumb Code    48  printfa.o(i._printf_pre_padding)
    i._sputc                                 0x0804bbfa   Section        0  printfa.o(i._sputc)
    _sputc                                   0x0804bbfb   Thumb Code    10  printfa.o(i._sputc)
    i.fabs                                   0x0804bc04   Section        0  fabs.o(i.fabs)
    i.free                                   0x0804bc24   Section        0  malloc.o(i.free)
    i.malloc                                 0x0804bc74   Section        0  malloc.o(i.malloc)
    i.sqrt                                   0x0804bce0   Section        0  sqrt.o(i.sqrt)
    .constdata                               0x0804bd50   Section     1446  veth_com_usart.o(.constdata)
    .constdata                               0x0804c2f8   Section        4  veth_mac.o(.constdata)
    .constdata                               0x0804c2fc   Section       16  stm32f4xx_hal_rcc.o(.constdata)
    .constdata                               0x0804c30c   Section       16  mib_structs.o(.constdata)
    .constdata                               0x0804c31c   Section     2300  mib2.o(.constdata)
    sysdescr_len_default                     0x0804caf8   Data           1  mib2.o(.constdata)
    sysdescr_default                         0x0804caf9   Data           5  mib2.o(.constdata)
    syscontact_len_default                   0x0804cafe   Data           1  mib2.o(.constdata)
    syscontact_default                       0x0804caff   Data           1  mib2.o(.constdata)
    sysname_len_default                      0x0804cb00   Data           1  mib2.o(.constdata)
    sysname_default                          0x0804cb01   Data           9  mib2.o(.constdata)
    syslocation_len_default                  0x0804cb0a   Data           1  mib2.o(.constdata)
    syslocation_default                      0x0804cb0b   Data           1  mib2.o(.constdata)
    snmpenableauthentraps_default            0x0804cb0c   Data           1  mib2.o(.constdata)
    ifspecific                               0x0804cb10   Data         132  mib2.o(.constdata)
    iprouteinfo                              0x0804cb94   Data         132  mib2.o(.constdata)
    .constdata                               0x0804cc18   Section       11  msg_in.o(.constdata)
    .constdata                               0x0804cc24   Section       60  stats.o(.constdata)
    .constdata                               0x0804cc60   Section       80  tcp.o(.constdata)
    .constdata                               0x0804ccb0   Section       85  tcp_out.o(.constdata)
    .constdata                               0x0804cd08   Section       80  etharp.o(.constdata)
    .constdata                               0x0804cd58   Section        8  ip_addr.o(.constdata)
    .constdata                               0x0804cd60   Section       60  memp.o(.constdata)
    memp_sizes                               0x0804cd60   Data          30  memp.o(.constdata)
    memp_num                                 0x0804cd7e   Data          30  memp.o(.constdata)
    .constdata                               0x0804cd9c   Section       66  web_main.o(.constdata)
    .constdata                               0x0804cde0   Section       65  ip_config.o(.constdata)
    .constdata                               0x0804ce24   Section      420  httpd.o(.constdata)
    g_psHTTPHeaderStrings                    0x0804ce24   Data         108  httpd.o(.constdata)
    g_psHTTPHeaders                          0x0804ce90   Data         144  httpd.o(.constdata)
    g_pcSSIExtensions                        0x0804cf20   Data          16  httpd.o(.constdata)
    .constdata                               0x0804cfc8   Section      128  ports.o(.constdata)
    .constdata                               0x0804d048   Section      153  system_info.o(.constdata)
    .constdata                               0x0804d0e4   Section       71  vlan.o(.constdata)
    .constdata                               0x0804d12b   Section        7  cjson.o(.constdata)
    firstByteMark                            0x0804d12b   Data           7  cjson.o(.constdata)
    .constdata                               0x0804d138   Section      136  pow.o(.constdata)
    bp                                       0x0804d138   Data          16  pow.o(.constdata)
    dp_h                                     0x0804d148   Data          16  pow.o(.constdata)
    dp_l                                     0x0804d158   Data          16  pow.o(.constdata)
    L                                        0x0804d168   Data          48  pow.o(.constdata)
    P                                        0x0804d198   Data          40  pow.o(.constdata)
    .constdata                               0x0804d1c0   Section      129  ctype_o.o(.constdata)
    .constdata                               0x0804d244   Section        4  ctype_o.o(.constdata)
    table                                    0x0804d244   Data           4  ctype_o.o(.constdata)
    .constdata                               0x0804d248   Section       12  localtime.o(.constdata)
    monlen                                   0x0804d248   Data          12  localtime.o(.constdata)
    .constdata                               0x0804d258   Section        8  qnan.o(.constdata)
    .conststring                             0x0804d260   Section    15016  main.o(.conststring)
    .conststring                             0x08050d08   Section       36  edge.o(.conststring)
    .conststring                             0x08050d2c   Section       44  migrate.o(.conststring)
    .conststring                             0x08050d58   Section       17  p2p.o(.conststring)
    .conststring                             0x08050d69   Section       11  pcost.o(.conststring)
    .conststring                             0x08050d74   Section       62  portinfo.o(.conststring)
    .conststring                             0x08050db2   Section       27  rolesel.o(.conststring)
    .conststring                             0x08050dcd   Section      248  roletrns.o(.conststring)
    .conststring                             0x08050ec5   Section      787  stp_in.o(.conststring)
    .conststring                             0x080511d8   Section       31  sttrans.o(.conststring)
    .conststring                             0x080511f7   Section       68  topoch.o(.conststring)
    .conststring                             0x0805123b   Section       80  transmit.o(.conststring)
    .conststring                             0x0805128b   Section      161  stats.o(.conststring)
    .conststring                             0x0805132c   Section       97  tcp.o(.conststring)
    .conststring                             0x0805138d   Section     1016  httpd.o(.conststring)
    .conststring                             0x08051785   Section      115  ports.o(.conststring)
    .conststring                             0x080517f8   Section       48  system_info.o(.conststring)
    STACK                                    0x20000000   Section    65536  startup_stm32f429x.o(STACK)
    COMDATABUFFER                            0x20010000   Section    36864  veth_serial.o(COMDATABUFFER)
    .data                                    0xc0030000   Section       20  system_stm32f4xx.o(.data)
    .data                                    0xc0030014   Section    15041  main.o(.data)
    gbk_hanzi                                0xc0030014   Data       15020  main.o(.data)
    .data                                    0xc0033ad8   Section    15374  veth_com_usart.o(.data)
    gbk_hanzi                                0xc0033ad8   Data       15020  veth_com_usart.o(.data)
    tem_command_gen                          0xc00376d8   Data           4  veth_com_usart.o(.data)
    error_user                               0xc00376dc   Data           1  veth_com_usart.o(.data)
    .data                                    0xc00376e8   Section      340  veth_hal_init.o(.data)
    .data                                    0xc003783c   Section    15045  veth_invariate.o(.data)
    gbk_hanzi                                0xc003783c   Data       15020  veth_invariate.o(.data)
    .data                                    0xc003b302   Section       24  veth_marvell_6097f.o(.data)
    .data                                    0xc003b31c   Section       24  veth_rstp.o(.data)
    port_num                                 0xc003b326   Data           1  veth_rstp.o(.data)
    tem_scount                               0xc003b328   Data           4  veth_rstp.o(.data)
    .data                                    0xc003b334   Section    18304  veth_serial.o(.data)
    gbk_hanzi                                0xc003b334   Data       15020  veth_serial.o(.data)
    tem_mscont                               0xc003fa98   Data           4  veth_serial.o(.data)
    tem_scount                               0xc003fa9c   Data           4  veth_serial.o(.data)
    tem_scount                               0xc003faa0   Data           4  veth_serial.o(.data)
    print_time                               0xc003faa4   Data           4  veth_serial.o(.data)
    tem_mscont                               0xc003faa8   Data           4  veth_serial.o(.data)
    .data                                    0xc003fab4   Section       16  edge.o(.data)
    state_names                              0xc003fab4   Data          16  edge.o(.data)
    .data                                    0xc003fac4   Section       20  migrate.o(.data)
    state_names                              0xc003fac4   Data          20  migrate.o(.data)
    .data                                    0xc003fad8   Section       12  p2p.o(.data)
    state_names                              0xc003fad8   Data          12  p2p.o(.data)
    .data                                    0xc003fae4   Section       12  pcost.o(.data)
    state_names                              0xc003fae4   Data          12  pcost.o(.data)
    .data                                    0xc003faf0   Section       36  portinfo.o(.data)
    state_names                              0xc003faf0   Data          36  portinfo.o(.data)
    .data                                    0xc003fb14   Section        8  rolesel.o(.data)
    state_names                              0xc003fb14   Data           8  rolesel.o(.data)
    .data                                    0xc003fb1c   Section       72  roletrns.o(.data)
    state_names                              0xc003fb1c   Data          72  roletrns.o(.data)
    .data                                    0xc003fb64   Section      132  stp_in.o(.data)
    rstp_error_names                         0xc003fb70   Data         120  stp_in.o(.data)
    .data                                    0xc003fbe8   Section    15024  stp_to.o(.data)
    gbk_hanzi                                0xc003fbe8   Data       15020  stp_to.o(.data)
    tmp                                      0xc0043694   Data           4  stp_to.o(.data)
    .data                                    0xc0043698   Section        4  stpm.o(.data)
    bridges                                  0xc0043698   Data           4  stpm.o(.data)
    .data                                    0xc004369c   Section       12  sttrans.o(.data)
    state_names                              0xc004369c   Data          12  sttrans.o(.data)
    .data                                    0xc00436a8   Section       32  topoch.o(.data)
    state_names                              0xc00436a8   Data          32  topoch.o(.data)
    .data                                    0xc00436c8   Section       88  transmit.o(.data)
    bpdu_packet                              0xc00436c8   Data          62  transmit.o(.data)
    state_names                              0xc0043708   Data          24  transmit.o(.data)
    .data                                    0xc0043720   Section    51200  veth_netupgrade.o(.data)
    .data                                    0xc004ff20   Section        6  veth_mac.o(.data)
    .data                                    0xc004ff26   Section        1  veth_port.o(.data)
    .data                                    0xc004ff28   Section        4  stm32f4xx_hal.o(.data)
    uwTick                                   0xc004ff28   Data           4  stm32f4xx_hal.o(.data)
    .data                                    0xc004ff2c   Section    15045  stm32f4xx_hal_uart.o(.data)
    gbk_hanzi                                0xc004ff2c   Data       15020  stm32f4xx_hal_uart.o(.data)
    .data                                    0xc00539f4   Section       12  igmp.o(.data)
    igmp_group_list                          0xc00539f4   Data           4  igmp.o(.data)
    allsystems                               0xc00539f8   Data           4  igmp.o(.data)
    allrouters                               0xc00539fc   Data           4  igmp.o(.data)
    .data                                    0xc0053a00   Section        1  mib_structs.o(.data)
    node_stack_cnt                           0xc0053a00   Data           1  mib_structs.o(.data)
    .data                                    0xc0053a04   Section    16132  mib2.o(.data)
    gbk_hanzi                                0xc0053a04   Data       15020  mib2.o(.data)
    sysobjid                                 0xc005768c   Data         132  mib2.o(.data)
    snmpgrp_id                               0xc0057710   Data         132  mib2.o(.data)
    sysdescr_len_ptr                         0xc0057794   Data           4  mib2.o(.data)
    sysdescr_ptr                             0xc0057798   Data           4  mib2.o(.data)
    syscontact_len_ptr                       0xc005779c   Data           4  mib2.o(.data)
    syscontact_ptr                           0xc00577a0   Data           4  mib2.o(.data)
    sysname_len_ptr                          0xc00577a4   Data           4  mib2.o(.data)
    sysname_ptr                              0xc00577a8   Data           4  mib2.o(.data)
    syslocation_len_ptr                      0xc00577ac   Data           4  mib2.o(.data)
    syslocation_ptr                          0xc00577b0   Data           4  mib2.o(.data)
    snmpenableauthentraps_ptr                0xc00577b4   Data           4  mib2.o(.data)
    sysuptime                                0xc00577b8   Data           4  mib2.o(.data)
    ipinreceives                             0xc00577bc   Data           4  mib2.o(.data)
    ipinhdrerrors                            0xc00577c0   Data           4  mib2.o(.data)
    ipinaddrerrors                           0xc00577c4   Data           4  mib2.o(.data)
    ipforwdatagrams                          0xc00577c8   Data           4  mib2.o(.data)
    ipinunknownprotos                        0xc00577cc   Data           4  mib2.o(.data)
    ipindiscards                             0xc00577d0   Data           4  mib2.o(.data)
    ipindelivers                             0xc00577d4   Data           4  mib2.o(.data)
    ipoutrequests                            0xc00577d8   Data           4  mib2.o(.data)
    ipoutdiscards                            0xc00577dc   Data           4  mib2.o(.data)
    ipoutnoroutes                            0xc00577e0   Data           4  mib2.o(.data)
    ipreasmreqds                             0xc00577e4   Data           4  mib2.o(.data)
    ipreasmoks                               0xc00577e8   Data           4  mib2.o(.data)
    ipreasmfails                             0xc00577ec   Data           4  mib2.o(.data)
    ipfragoks                                0xc00577f0   Data           4  mib2.o(.data)
    ipfragfails                              0xc00577f4   Data           4  mib2.o(.data)
    ipfragcreates                            0xc00577f8   Data           4  mib2.o(.data)
    iproutingdiscards                        0xc00577fc   Data           4  mib2.o(.data)
    icmpinmsgs                               0xc0057800   Data           4  mib2.o(.data)
    icmpinerrors                             0xc0057804   Data           4  mib2.o(.data)
    icmpindestunreachs                       0xc0057808   Data           4  mib2.o(.data)
    icmpintimeexcds                          0xc005780c   Data           4  mib2.o(.data)
    icmpinparmprobs                          0xc0057810   Data           4  mib2.o(.data)
    icmpinsrcquenchs                         0xc0057814   Data           4  mib2.o(.data)
    icmpinredirects                          0xc0057818   Data           4  mib2.o(.data)
    icmpinechos                              0xc005781c   Data           4  mib2.o(.data)
    icmpinechoreps                           0xc0057820   Data           4  mib2.o(.data)
    icmpintimestamps                         0xc0057824   Data           4  mib2.o(.data)
    icmpintimestampreps                      0xc0057828   Data           4  mib2.o(.data)
    icmpinaddrmasks                          0xc005782c   Data           4  mib2.o(.data)
    icmpinaddrmaskreps                       0xc0057830   Data           4  mib2.o(.data)
    icmpoutmsgs                              0xc0057834   Data           4  mib2.o(.data)
    icmpouterrors                            0xc0057838   Data           4  mib2.o(.data)
    icmpoutdestunreachs                      0xc005783c   Data           4  mib2.o(.data)
    icmpouttimeexcds                         0xc0057840   Data           4  mib2.o(.data)
    icmpoutparmprobs                         0xc0057844   Data           4  mib2.o(.data)
    icmpoutsrcquenchs                        0xc0057848   Data           4  mib2.o(.data)
    icmpoutredirects                         0xc005784c   Data           4  mib2.o(.data)
    icmpoutechos                             0xc0057850   Data           4  mib2.o(.data)
    icmpoutechoreps                          0xc0057854   Data           4  mib2.o(.data)
    icmpouttimestamps                        0xc0057858   Data           4  mib2.o(.data)
    icmpouttimestampreps                     0xc005785c   Data           4  mib2.o(.data)
    icmpoutaddrmasks                         0xc0057860   Data           4  mib2.o(.data)
    icmpoutaddrmaskreps                      0xc0057864   Data           4  mib2.o(.data)
    tcpactiveopens                           0xc0057868   Data           4  mib2.o(.data)
    tcppassiveopens                          0xc005786c   Data           4  mib2.o(.data)
    tcpattemptfails                          0xc0057870   Data           4  mib2.o(.data)
    tcpestabresets                           0xc0057874   Data           4  mib2.o(.data)
    tcpinsegs                                0xc0057878   Data           4  mib2.o(.data)
    tcpoutsegs                               0xc005787c   Data           4  mib2.o(.data)
    tcpretranssegs                           0xc0057880   Data           4  mib2.o(.data)
    tcpinerrs                                0xc0057884   Data           4  mib2.o(.data)
    tcpoutrsts                               0xc0057888   Data           4  mib2.o(.data)
    udpindatagrams                           0xc005788c   Data           4  mib2.o(.data)
    udpnoports                               0xc0057890   Data           4  mib2.o(.data)
    udpinerrors                              0xc0057894   Data           4  mib2.o(.data)
    udpoutdatagrams                          0xc0057898   Data           4  mib2.o(.data)
    snmpinpkts                               0xc005789c   Data           4  mib2.o(.data)
    snmpoutpkts                              0xc00578a0   Data           4  mib2.o(.data)
    snmpinbadversions                        0xc00578a4   Data           4  mib2.o(.data)
    snmpinbadcommunitynames                  0xc00578a8   Data           4  mib2.o(.data)
    snmpinbadcommunityuses                   0xc00578ac   Data           4  mib2.o(.data)
    snmpinasnparseerrs                       0xc00578b0   Data           4  mib2.o(.data)
    snmpintoobigs                            0xc00578b4   Data           4  mib2.o(.data)
    snmpinnosuchnames                        0xc00578b8   Data           4  mib2.o(.data)
    snmpinbadvalues                          0xc00578bc   Data           4  mib2.o(.data)
    snmpinreadonlys                          0xc00578c0   Data           4  mib2.o(.data)
    snmpingenerrs                            0xc00578c4   Data           4  mib2.o(.data)
    snmpintotalreqvars                       0xc00578c8   Data           4  mib2.o(.data)
    snmpintotalsetvars                       0xc00578cc   Data           4  mib2.o(.data)
    snmpingetrequests                        0xc00578d0   Data           4  mib2.o(.data)
    snmpingetnexts                           0xc00578d4   Data           4  mib2.o(.data)
    snmpinsetrequests                        0xc00578d8   Data           4  mib2.o(.data)
    snmpingetresponses                       0xc00578dc   Data           4  mib2.o(.data)
    snmpintraps                              0xc00578e0   Data           4  mib2.o(.data)
    snmpouttoobigs                           0xc00578e4   Data           4  mib2.o(.data)
    snmpoutnosuchnames                       0xc00578e8   Data           4  mib2.o(.data)
    snmpoutbadvalues                         0xc00578ec   Data           4  mib2.o(.data)
    snmpoutgenerrs                           0xc00578f0   Data           4  mib2.o(.data)
    snmpoutgetrequests                       0xc00578f4   Data           4  mib2.o(.data)
    snmpoutgetnexts                          0xc00578f8   Data           4  mib2.o(.data)
    snmpoutsetrequests                       0xc00578fc   Data           4  mib2.o(.data)
    snmpoutgetresponses                      0xc0057900   Data           4  mib2.o(.data)
    snmpouttraps                             0xc0057904   Data           4  mib2.o(.data)
    .data                                    0xc0057908   Section        4  msg_in.o(.data)
    .data                                    0xc005790c   Section        8  msg_out.o(.data)
    .data                                    0xc0057914   Section       44  tcp.o(.data)
    tcp_port                                 0xc0057914   Data           2  tcp.o(.data)
    iss                                      0xc0057918   Data           4  tcp.o(.data)
    tcp_timer                                0xc0057938   Data           4  tcp.o(.data)
    tcp_timer_ctr                            0xc005793c   Data           4  tcp.o(.data)
    .data                                    0xc0057940   Section       32  tcp_in.o(.data)
    tcphdr                                   0xc0057940   Data           4  tcp_in.o(.data)
    iphdr                                    0xc0057944   Data           4  tcp_in.o(.data)
    seqno                                    0xc0057948   Data           4  tcp_in.o(.data)
    ackno                                    0xc005794c   Data           4  tcp_in.o(.data)
    flags                                    0xc0057950   Data           1  tcp_in.o(.data)
    tcplen                                   0xc0057952   Data           2  tcp_in.o(.data)
    recv_flags                               0xc0057954   Data           1  tcp_in.o(.data)
    recv_data                                0xc0057958   Data           4  tcp_in.o(.data)
    .data                                    0xc0057960   Section       12  timers.o(.data)
    next_timeout                             0xc0057960   Data           4  timers.o(.data)
    timeouts_last_time                       0xc0057964   Data           4  timers.o(.data)
    tcpip_tcp_timer_active                   0xc0057968   Data           4  timers.o(.data)
    .data                                    0xc005796c   Section        8  udp.o(.data)
    udp_port                                 0xc005796c   Data           2  udp.o(.data)
    .data                                    0xc0057974   Section    15021  etharp.o(.data)
    gbk_hanzi                                0xc0057974   Data       15020  etharp.o(.data)
    etharp_cached_entry                      0xc005b420   Data           1  etharp.o(.data)
    .data                                    0xc005b424   Section       18  ip.o(.data)
    ip_id                                    0xc005b434   Data           2  ip.o(.data)
    .data                                    0xc005b438   Section        6  ip_frag.o(.data)
    reassdatagrams                           0xc005b438   Data           4  ip_frag.o(.data)
    ip_reass_pbufcount                       0xc005b43c   Data           2  ip_frag.o(.data)
    .data                                    0xc005b440   Section       12  mem.o(.data)
    ram                                      0xc005b440   Data           4  mem.o(.data)
    ram_end                                  0xc005b444   Data           4  mem.o(.data)
    lfree                                    0xc005b448   Data           4  mem.o(.data)
    .data                                    0xc005b44c   Section        9  netif.o(.data)
    netif_num                                0xc005b454   Data           1  netif.o(.data)
    .data                                    0xc005b458   Section        4  raw.o(.data)
    raw_pcbs                                 0xc005b458   Data           4  raw.o(.data)
    .data                                    0xc005b45c   Section    15036  board_info.o(.data)
    gbk_hanzi                                0xc005b45c   Data       15020  board_info.o(.data)
    .data                                    0xc005ef18   Section    666384  fs.o(.data)
    gbk_hanzi                                0xc005ef18   Data       15020  fs.o(.data)
    currentTotalPage                         0xc00629c4   Data           4  fs.o(.data)
    data__images_conflict_gif                0xc00629c8   Data         915  fs.o(.data)
    data__images_factory_gif                 0xc0062d5b   Data       25016  fs.o(.data)
    data__images_favicon_ico                 0xc0068f13   Data        1170  fs.o(.data)
    data__images_forbid_gif                  0xc00693a5   Data         899  fs.o(.data)
    data__images_jack_copper_disabled_bottom_png 0xc0069728   Data         268  fs.o(.data)
    data__images_jack_copper_disabled_top_png 0xc0069834   Data         257  fs.o(.data)
    data__images_jack_copper_down_bottom_png 0xc0069935   Data         345  fs.o(.data)
    data__images_jack_copper_down_top_png    0xc0069a8e   Data         280  fs.o(.data)
    data__images_jack_copper_link_bottom_png 0xc0069ba6   Data         388  fs.o(.data)
    data__images_jack_copper_link_top_png    0xc0069d2a   Data         378  fs.o(.data)
    data__images_jack_hdmi_disabled_bottom_png 0xc0069ea4   Data         261  fs.o(.data)
    data__images_jack_hdmi_down_bottom_png   0xc0069fa9   Data         250  fs.o(.data)
    data__images_jack_hdmi_link_bottom_png   0xc006a0a3   Data         226  fs.o(.data)
    data__images_jack_hdmi_sprout_bottom_png 0xc006a185   Data         246  fs.o(.data)
    data__images_jack_sfp_disabled_bottom_png 0xc006a27b   Data         268  fs.o(.data)
    data__images_jack_sfp_down_bottom_png    0xc006a387   Data         251  fs.o(.data)
    data__images_jack_sfp_link_bottom_png    0xc006a482   Data         265  fs.o(.data)
    data__images_jack_sfp_sprout_bottom_png  0xc006a58b   Data         245  fs.o(.data)
    data__images_jack_sfp_up_bottom_png      0xc006a680   Data         249  fs.o(.data)
    data__images_jack_x2_disabled_bottom_png 0xc006a779   Data         236  fs.o(.data)
    data__images_jack_x2_down_bottom_png     0xc006a865   Data         218  fs.o(.data)
    data__images_jack_x2_link_bottom_png     0xc006a93f   Data         233  fs.o(.data)
    data__images_led_down_gif                0xc006aa28   Data         749  fs.o(.data)
    data__images_led_green_small_gif         0xc006ad15   Data          90  fs.o(.data)
    data__images_led_off_small_gif           0xc006ad6f   Data          88  fs.o(.data)
    data__images_led_up_gif                  0xc006adc7   Data         760  fs.o(.data)
    data__images_logo_png                    0xc006b0bf   Data        6011  fs.o(.data)
    data__images_logout_png                  0xc006c83a   Data        2192  fs.o(.data)
    data__images_menu_o_gif                  0xc006d0ca   Data          77  fs.o(.data)
    data__images_no_gif                      0xc006d117   Data         913  fs.o(.data)
    data__images_port_gif                    0xc006d4a8   Data         878  fs.o(.data)
    data__images_port_1_gif                  0xc006d816   Data         198  fs.o(.data)
    data__images_port_2_gif                  0xc006d8dc   Data         237  fs.o(.data)
    data__images_port_3_gif                  0xc006d9c9   Data         223  fs.o(.data)
    data__images_switch_small_png            0xc006daa8   Data         407  fs.o(.data)
    data__images_title_png                   0xc006dc3f   Data        6578  fs.o(.data)
    data__images_title1_png                  0xc006f5f1   Data        3001  fs.o(.data)
    data__images_updating_gif                0xc00701aa   Data        1870  fs.o(.data)
    data__images_yes_gif                     0xc00708f8   Data         906  fs.o(.data)
    data__lib_ajax_js                        0xc0070c82   Data        4507  fs.o(.data)
    data__lib_control_js                     0xc0072045   Data        4952  fs.o(.data)
    data__lib_cookie_js                      0xc007339d   Data        1301  fs.o(.data)
    data__lib_core_js                        0xc00738b2   Data       88979  fs.o(.data)
    data__lib_demo_css                       0xc0089445   Data        1723  fs.o(.data)
    data__lib_exporting_js                   0xc0089b00   Data        7467  fs.o(.data)
    data__lib_filter_css                     0xc008b82b   Data        2201  fs.o(.data)
    data__lib_format_js                      0xc008c0c4   Data        1150  fs.o(.data)
    data__lib_formUtility_js                 0xc008c542   Data        9359  fs.o(.data)
    data__lib_highcharts_js                  0xc008e9d1   Data       153928  fs.o(.data)
    data__lib_html5_js                       0xc00b4319   Data        2650  fs.o(.data)
    data__lib_jquery_min_js                  0xc00b4d73   Data       93452  fs.o(.data)
    data__lib_normal_css                     0xc00cba7f   Data        6647  fs.o(.data)
    data__lib_validate_js                    0xc00cd476   Data       30003  fs.o(.data)
    data__404_html                           0xc00d49a9   Data         555  fs.o(.data)
    data__bandwidth_chart_shtml              0xc00d4bd4   Data        6666  fs.o(.data)
    data__download_config_file_shtml         0xc00d65de   Data        1211  fs.o(.data)
    data__dyna_mac_shtml                     0xc00d6a99   Data       10644  fs.o(.data)
    data__factory_shtml                      0xc00d942d   Data        2987  fs.o(.data)
    data__index_shtml                        0xc00d9fd8   Data        5628  fs.o(.data)
    data__left_html                          0xc00db5d4   Data        8607  fs.o(.data)
    data__login_shtml                        0xc00dd773   Data       12527  fs.o(.data)
    data__mac_shtml                          0xc00e0862   Data       11416  fs.o(.data)
    data__ports_shtml                        0xc00e34fa   Data       14541  fs.o(.data)
    data__restart_shtml                      0xc00e6dc7   Data        4405  fs.o(.data)
    data__save_all_shtml                     0xc00e7efc   Data        1634  fs.o(.data)
    data__serial_shtml                       0xc00e855e   Data       12958  fs.o(.data)
    data__stat_detailed_shtml                0xc00eb7fc   Data        9727  fs.o(.data)
    data__stat_ports_shtml                   0xc00eddfb   Data        5419  fs.o(.data)
    data__sys_shtml                          0xc00ef326   Data        3844  fs.o(.data)
    data__system_config_shtml                0xc00f022a   Data        8880  fs.o(.data)
    data__system_log_shtml                   0xc00f24da   Data        9288  fs.o(.data)
    data__top_html                           0xc00f4922   Data         962  fs.o(.data)
    data__update_shtml                       0xc00f4ce4   Data        6267  fs.o(.data)
    data__upload_config_file_shtml           0xc00f655f   Data        5917  fs.o(.data)
    data__vlan_shtml                         0xc00f7c7c   Data       14293  fs.o(.data)
    data__vlan_membership_stat_shtml         0xc00fb451   Data       11041  fs.o(.data)
    data__vlan_port_shtml                    0xc00fdf72   Data        7752  fs.o(.data)
    data__vlan_port_stat_shtml               0xc00ffdba   Data        5696  fs.o(.data)
    .data                                    0xc0101a28   Section    95892  web_main.o(.data)
    gbk_hanzi                                0xc0101a28   Data       15020  web_main.o(.data)
    .data                                    0xc01190bc   Section      512  crc16.o(.data)
    .data                                    0xc01192bc   Section    15044  httpd.o(.data)
    gbk_hanzi                                0xc01192bc   Data       15020  httpd.o(.data)
    currentTotalPage                         0xc011cd68   Data           4  httpd.o(.data)
    tag_name_array                           0xc011cd78   Data           4  httpd.o(.data)
    .data                                    0xc011cd80   Section    15051  httpd-cgi.o(.data)
    gbk_hanzi                                0xc011cd80   Data       15020  httpd-cgi.o(.data)
    currentTotalPage                         0xc012082c   Data           4  httpd-cgi.o(.data)
    .data                                    0xc012084c   Section    15084  ports.o(.data)
    gbk_hanzi                                0xc012084c   Data       15020  ports.o(.data)
    is_first_light_port                      0xc012432c   Data           4  ports.o(.data)
    current_light_num                        0xc0124334   Data           4  ports.o(.data)
    .data                                    0xc0124338   Section    15032  system_maintain.o(.data)
    gbk_hanzi                                0xc0124338   Data       15020  system_maintain.o(.data)
    .data                                    0xc0127df0   Section    15020  gbk_conv_hanzi.o(.data)
    gbk_hanzi                                0xc0127df0   Data       15020  gbk_conv_hanzi.o(.data)
    .data                                    0xc012b89c   Section    15032  system_info.o(.data)
    gbk_hanzi                                0xc012b89c   Data       15020  system_info.o(.data)
    .data                                    0xc012f354   Section    15032  mac_link.o(.data)
    gbk_hanzi                                0xc012f354   Data       15020  mac_link.o(.data)
    .data                                    0xc0132e0c   Section    15026  mac_table.o(.data)
    gbk_hanzi                                0xc0132e0c   Data       15020  mac_table.o(.data)
    .data                                    0xc01368c0   Section    15028  vlan_link.o(.data)
    gbk_hanzi                                0xc01368c0   Data       15020  vlan_link.o(.data)
    .data                                    0xc013a374   Section    15036  ntp_client.o(.data)
    gbk_hanzi                                0xc013a374   Data       15020  ntp_client.o(.data)
    ntp_udp_client                           0xc013de20   Data           4  ntp_client.o(.data)
    send_data_length                         0xc013de24   Data           4  ntp_client.o(.data)
    .data                                    0xc013de30   Section       12  cjson.o(.data)
    cJSON_malloc                             0xc013de30   Data           4  cjson.o(.data)
    cJSON_free                               0xc013de34   Data           4  cjson.o(.data)
    ep                                       0xc013de38   Data           4  cjson.o(.data)
    .data                                    0xc013de3c   Section    15024  jsonutility.o(.data)
    gbk_hanzi                                0xc013de3c   Data       15020  jsonutility.o(.data)
    .data                                    0xc01418ec   Section    15024  upload_file.o(.data)
    gbk_hanzi                                0xc01418ec   Data       15020  upload_file.o(.data)
    .data                                    0xc014539c   Section    15032  loginfo.o(.data)
    gbk_hanzi                                0xc014539c   Data       15020  loginfo.o(.data)
    .data                                    0xc0148e54   Section    15024  session.o(.data)
    gbk_hanzi                                0xc0148e54   Data       15020  session.o(.data)
    .data                                    0xc014c904   Section    15024  serialutility.o(.data)
    gbk_hanzi                                0xc014c904   Data       15020  serialutility.o(.data)
    .data                                    0xc01503b4   Section        4  stderr.o(.data)
    .data                                    0xc01503b8   Section        4  rand.o(.data)
    _rand_state                              0xc01503b8   Data           4  rand.o(.data)
    .data                                    0xc01503bc   Section        4  strtok.o(.data)
    state                                    0xc01503bc   Data           4  strtok.o(.data)
    .data                                    0xc01503c0   Section        4  stdout.o(.data)
    .data                                    0xc01503c4   Section        4  mvars.o(.data)
    .data                                    0xc01503c8   Section        4  mvars.o(.data)
    .data                                    0xc01503cc   Section        4  errno.o(.data)
    _errno                                   0xc01503cc   Data           4  errno.o(.data)
    EXTSDRAM                                 0xc01503d0   Section    256000  veth_hal_init.o(EXTSDRAM)
    .bss                                     0xc018ebd0   Section      108  main.o(.bss)
    .bss                                     0xc018ec3c   Section       40  veth_com_usart.o(.bss)
    username                                 0xc018ec3c   Data          20  veth_com_usart.o(.bss)
    password                                 0xc018ec50   Data          20  veth_com_usart.o(.bss)
    .bss                                     0xc018ec64   Section       12  veth_eth_ap.o(.bss)
    .bss                                     0xc018ec70   Section    22328  veth_hal_init.o(.bss)
    .bss                                     0xc01943a8   Section      230  veth_invariate.o(.bss)
    EraseInitStruct                          0xc01943a8   Data          20  veth_invariate.o(.bss)
    .bss                                     0xc019448e   Section       42  veth_rstp.o(.bss)
    bpdu                                     0xc019448e   Data          42  veth_rstp.o(.bss)
    .bss                                     0xc01944b8   Section    615600  veth_serial.o(.bss)
    hdma_tx                                  0xc01944b8   Data          84  veth_serial.o(.bss)
    hdma_rx                                  0xc019450c   Data          84  veth_serial.o(.bss)
    hdma_tx                                  0xc0194560   Data          84  veth_serial.o(.bss)
    hdma_rx                                  0xc01945b4   Data          84  veth_serial.o(.bss)
    hdma_tx                                  0xc0194608   Data          84  veth_serial.o(.bss)
    hdma_rx                                  0xc019465c   Data          84  veth_serial.o(.bss)
    hdma_tx                                  0xc01946b0   Data          84  veth_serial.o(.bss)
    hdma_rx                                  0xc0194704   Data          84  veth_serial.o(.bss)
    .bss                                     0xc022a968   Section       28  stm32f4xx_hal_flash.o(.bss)
    .bss                                     0xc022a984   Section       50  stm32f4xx_hal_uart.o(.bss)
    .bss                                     0xc022a9b8   Section      384  mib_structs.o(.bss)
    node_stack                               0xc022a9b8   Data         384  mib_structs.o(.bss)
    .bss                                     0xc022ab38   Section      304  msg_in.o(.bss)
    .bss                                     0xc022ac68   Section       68  msg_out.o(.bss)
    .bss                                     0xc022acac   Section      516  stats.o(.bss)
    .bss                                     0xc022aeb0   Section       20  tcp_in.o(.bss)
    inseg                                    0xc022aeb0   Data          20  tcp_in.o(.bss)
    .bss                                     0xc022aec4   Section      200  etharp.o(.bss)
    arp_table                                0xc022aec4   Data         200  etharp.o(.bss)
    .bss                                     0xc022af8c   Section       16  ip_addr.o(.bss)
    str                                      0xc022af8c   Data          16  ip_addr.o(.bss)
    .bss                                     0xc022af9c   Section    129604  memp.o(.bss)
    memp_tab                                 0xc022af9c   Data          60  memp.o(.bss)
    memp_memory                              0xc022afd8   Data       129544  memp.o(.bss)
    .bss                                     0xc024a9e0   Section      104  netif.o(.bss)
    .bss                                     0xc024aa48   Section       10  board_info.o(.bss)
    .bss                                     0xc024aa54   Section    80818  web_main.o(.bss)
    .bss                                     0xc025e606   Section     1088  httpd.o(.bss)
    httpd_req_buf                            0xc025e606   Data        1024  httpd.o(.bss)
    http_post_response_filename              0xc025ea06   Data          64  httpd.o(.bss)
    .bss                                     0xc025ea48   Section     2640  ports.o(.bss)
    portsState                               0xc025ea48   Data        1024  ports.o(.bss)
    all_count                                0xc025ee48   Data         200  ports.o(.bss)
    head_str                                 0xc025ef10   Data         750  ports.o(.bss)
    portBuf                                  0xc025f1fe   Data         200  ports.o(.bss)
    rx_tx_band_width                         0xc025f2c6   Data         100  ports.o(.bss)
    .bss                                     0xc025f498   Section       36  timer.o(.bss)
    timers                                   0xc025f498   Data          36  timer.o(.bss)
    .bss                                     0xc025f4bc   Section      946  system_maintain.o(.bss)
    result                                   0xc025f4bc   Data          32  system_maintain.o(.bss)
    .bss                                     0xc025f86e   Section       50  gbk_conv_hanzi.o(.bss)
    result                                   0xc025f86e   Data          50  gbk_conv_hanzi.o(.bss)
    .bss                                     0xc025f8a0   Section      548  system_info.o(.bss)
    ip_config                                0xc025f8a0   Data         100  system_info.o(.bss)
    sys_info                                 0xc025f904   Data         400  system_info.o(.bss)
    .bss                                     0xc025fac4   Section     8592  mac_table.o(.bss)
    all_data                                 0xc025fac4   Data        4096  mac_table.o(.bss)
    all_data                                 0xc0260ac4   Data        4096  mac_table.o(.bss)
    .bss                                     0xc0261c54   Section     1024  mac.o(.bss)
    mac_status                               0xc0261c54   Data        1024  mac.o(.bss)
    .bss                                     0xc0262054   Section     8752  vlan.o(.bss)
    vlan_status                              0xc0262054   Data        4096  vlan.o(.bss)
    vlan_status                              0xc0263054   Data        4096  vlan.o(.bss)
    vlan_ports_status                        0xc0264054   Data         260  vlan.o(.bss)
    vlan_preview_status                      0xc0264158   Data         300  vlan.o(.bss)
    .bss                                     0xc0264284   Section       32  user.o(.bss)
    .bss                                     0xc02642a4   Section       48  ntp_client.o(.bss)
    ntp_client                               0xc02642a4   Data          48  ntp_client.o(.bss)
    .bss                                     0xc02642d4   Section       64  stringhashtable.o(.bss)
    .bss                                     0xc0264314   Section     8192  logutility.o(.bss)
    all_data                                 0xc0264314   Data        4096  logutility.o(.bss)
    all_data                                 0xc0265314   Data        4096  logutility.o(.bss)
    .bss                                     0xc0266314   Section      144  serialqueue.o(.bss)
    .bss                                     0xc02663a4   Section     1356  serialutility.o(.bss)
    serial_config_data                       0xc02663a4   Data        1324  serialutility.o(.bss)
    .bss                                     0xc02668f0   Section       96  serialclient.o(.bss)
    .bss                                     0xc0266950   Section       16  serialserver.o(.bss)
    .bss                                     0xc0266960   Section       48  serialserverudp.o(.bss)
    .bss                                     0xc0266990   Section       44  localtime.o(.bss)
    _tms                                     0xc0266990   Data          44  localtime.o(.bss)
    .ARM.__AT_0xC0600000                     0xc0600000   Section    868360  main.o(.ARM.__AT_0xC0600000)
    .bss                                     0xc06d4008   Section    4194329  mem.o(.bss)
    HEAP                                     0xc0ad4028   Section    5242880  startup_stm32f429x.o(HEAP)

    Global Symbols

    Symbol Name                              Value     Ov Type        Size  Object(Section)

    BuildAttributes$$THM_ISAv4$E$P$D$K$B$S$7EM$VFPi3$EXTD16$VFPS$VFMA$PE$A:L22UL41UL21$X:L11$S22US41US21$IEEE1$IW$USESV6$~STKCKD$USESV7$~SHL$OTIME$ROPI$IEEEX$EBA8$MICROLIB$REQ8$PRES8$EABIv2 0x00000000   Number         0  anon$$obj.o ABSOLUTE
    __ARM_use_no_argv                        0x00000000   Number         0  main.o ABSOLUTE
    _printf_a                                0x00000000   Number         0  stubs.o ABSOLUTE
    _printf_c                                0x00000000   Number         0  stubs.o ABSOLUTE
    _printf_charcount                        0x00000000   Number         0  stubs.o ABSOLUTE
    _printf_d                                0x00000000   Number         0  stubs.o ABSOLUTE
    _printf_e                                0x00000000   Number         0  stubs.o ABSOLUTE
    _printf_f                                0x00000000   Number         0  stubs.o ABSOLUTE
    _printf_flags                            0x00000000   Number         0  stubs.o ABSOLUTE
    _printf_fp_dec                           0x00000000   Number         0  stubs.o ABSOLUTE
    _printf_fp_hex                           0x00000000   Number         0  stubs.o ABSOLUTE
    _printf_g                                0x00000000   Number         0  stubs.o ABSOLUTE
    _printf_i                                0x00000000   Number         0  stubs.o ABSOLUTE
    _printf_int_dec                          0x00000000   Number         0  stubs.o ABSOLUTE
    _printf_l                                0x00000000   Number         0  stubs.o ABSOLUTE
    _printf_lc                               0x00000000   Number         0  stubs.o ABSOLUTE
    _printf_ll                               0x00000000   Number         0  stubs.o ABSOLUTE
    _printf_lld                              0x00000000   Number         0  stubs.o ABSOLUTE
    _printf_lli                              0x00000000   Number         0  stubs.o ABSOLUTE
    _printf_llo                              0x00000000   Number         0  stubs.o ABSOLUTE
    _printf_llu                              0x00000000   Number         0  stubs.o ABSOLUTE
    _printf_llx                              0x00000000   Number         0  stubs.o ABSOLUTE
    _printf_longlong_dec                     0x00000000   Number         0  stubs.o ABSOLUTE
    _printf_longlong_hex                     0x00000000   Number         0  stubs.o ABSOLUTE
    _printf_longlong_oct                     0x00000000   Number         0  stubs.o ABSOLUTE
    _printf_ls                               0x00000000   Number         0  stubs.o ABSOLUTE
    _printf_mbtowc                           0x00000000   Number         0  stubs.o ABSOLUTE
    _printf_n                                0x00000000   Number         0  stubs.o ABSOLUTE
    _printf_o                                0x00000000   Number         0  stubs.o ABSOLUTE
    _printf_p                                0x00000000   Number         0  stubs.o ABSOLUTE
    _printf_percent                          0x00000000   Number         0  stubs.o ABSOLUTE
    _printf_pre_padding                      0x00000000   Number         0  stubs.o ABSOLUTE
    _printf_return_value                     0x00000000   Number         0  stubs.o ABSOLUTE
    _printf_s                                0x00000000   Number         0  stubs.o ABSOLUTE
    _printf_sizespec                         0x00000000   Number         0  stubs.o ABSOLUTE
    _printf_str                              0x00000000   Number         0  stubs.o ABSOLUTE
    _printf_truncate_signed                  0x00000000   Number         0  stubs.o ABSOLUTE
    _printf_truncate_unsigned                0x00000000   Number         0  stubs.o ABSOLUTE
    _printf_u                                0x00000000   Number         0  stubs.o ABSOLUTE
    _printf_wc                               0x00000000   Number         0  stubs.o ABSOLUTE
    _printf_wctomb                           0x00000000   Number         0  stubs.o ABSOLUTE
    _printf_widthprec                        0x00000000   Number         0  stubs.o ABSOLUTE
    _printf_x                                0x00000000   Number         0  stubs.o ABSOLUTE
    __cpp_initialize__aeabi_                  - Undefined Weak Reference
    __cxa_finalize                            - Undefined Weak Reference
    _clock_init                               - Undefined Weak Reference
    _microlib_exit                            - Undefined Weak Reference
    __Vectors_Size                           0x000001ac   Number         0  startup_stm32f429x.o ABSOLUTE
    __Vectors                                0x0800c000   Data           4  startup_stm32f429x.o(RESET)
    __Vectors_End                            0x0800c1ac   Data           0  startup_stm32f429x.o(RESET)
    __main                                   0x0800c1ad   Thumb Code     0  entry.o(.ARM.Collect$$$$00000000)
    _main_stk                                0x0800c1ad   Thumb Code     0  entry2.o(.ARM.Collect$$$$00000001)
    _main_scatterload                        0x0800c1b1   Thumb Code     0  entry5.o(.ARM.Collect$$$$00000004)
    __main_after_scatterload                 0x0800c1b5   Thumb Code     0  entry5.o(.ARM.Collect$$$$00000004)
    _main_clock                              0x0800c1b5   Thumb Code     0  entry7b.o(.ARM.Collect$$$$00000008)
    _main_cpp_init                           0x0800c1b5   Thumb Code     0  entry8b.o(.ARM.Collect$$$$0000000A)
    _main_init                               0x0800c1b5   Thumb Code     0  entry9a.o(.ARM.Collect$$$$0000000B)
    __rt_final_cpp                           0x0800c1bd   Thumb Code     0  entry10a.o(.ARM.Collect$$$$0000000D)
    __rt_final_exit                          0x0800c1bd   Thumb Code     0  entry11a.o(.ARM.Collect$$$$0000000F)
    Reset_Handler                            0x0800c1c1   Thumb Code     8  startup_stm32f429x.o(.text)
    ADC_IRQHandler                           0x0800c1db   Thumb Code     0  startup_stm32f429x.o(.text)
    CAN1_RX0_IRQHandler                      0x0800c1db   Thumb Code     0  startup_stm32f429x.o(.text)
    CAN1_RX1_IRQHandler                      0x0800c1db   Thumb Code     0  startup_stm32f429x.o(.text)
    CAN1_SCE_IRQHandler                      0x0800c1db   Thumb Code     0  startup_stm32f429x.o(.text)
    CAN1_TX_IRQHandler                       0x0800c1db   Thumb Code     0  startup_stm32f429x.o(.text)
    CAN2_RX0_IRQHandler                      0x0800c1db   Thumb Code     0  startup_stm32f429x.o(.text)
    CAN2_RX1_IRQHandler                      0x0800c1db   Thumb Code     0  startup_stm32f429x.o(.text)
    CAN2_SCE_IRQHandler                      0x0800c1db   Thumb Code     0  startup_stm32f429x.o(.text)
    CAN2_TX_IRQHandler                       0x0800c1db   Thumb Code     0  startup_stm32f429x.o(.text)
    CRYP_IRQHandler                          0x0800c1db   Thumb Code     0  startup_stm32f429x.o(.text)
    DCMI_IRQHandler                          0x0800c1db   Thumb Code     0  startup_stm32f429x.o(.text)
    DMA1_Stream5_IRQHandler                  0x0800c1db   Thumb Code     0  startup_stm32f429x.o(.text)
    DMA1_Stream6_IRQHandler                  0x0800c1db   Thumb Code     0  startup_stm32f429x.o(.text)
    DMA2D_IRQHandler                         0x0800c1db   Thumb Code     0  startup_stm32f429x.o(.text)
    DMA2_Stream0_IRQHandler                  0x0800c1db   Thumb Code     0  startup_stm32f429x.o(.text)
    DMA2_Stream2_IRQHandler                  0x0800c1db   Thumb Code     0  startup_stm32f429x.o(.text)
    DMA2_Stream3_IRQHandler                  0x0800c1db   Thumb Code     0  startup_stm32f429x.o(.text)
    DMA2_Stream4_IRQHandler                  0x0800c1db   Thumb Code     0  startup_stm32f429x.o(.text)
    DMA2_Stream5_IRQHandler                  0x0800c1db   Thumb Code     0  startup_stm32f429x.o(.text)
    DMA2_Stream7_IRQHandler                  0x0800c1db   Thumb Code     0  startup_stm32f429x.o(.text)
    ETH_IRQHandler                           0x0800c1db   Thumb Code     0  startup_stm32f429x.o(.text)
    ETH_WKUP_IRQHandler                      0x0800c1db   Thumb Code     0  startup_stm32f429x.o(.text)
    EXTI0_IRQHandler                         0x0800c1db   Thumb Code     0  startup_stm32f429x.o(.text)
    EXTI15_10_IRQHandler                     0x0800c1db   Thumb Code     0  startup_stm32f429x.o(.text)
    EXTI1_IRQHandler                         0x0800c1db   Thumb Code     0  startup_stm32f429x.o(.text)
    EXTI2_IRQHandler                         0x0800c1db   Thumb Code     0  startup_stm32f429x.o(.text)
    EXTI3_IRQHandler                         0x0800c1db   Thumb Code     0  startup_stm32f429x.o(.text)
    EXTI4_IRQHandler                         0x0800c1db   Thumb Code     0  startup_stm32f429x.o(.text)
    EXTI9_5_IRQHandler                       0x0800c1db   Thumb Code     0  startup_stm32f429x.o(.text)
    FLASH_IRQHandler                         0x0800c1db   Thumb Code     0  startup_stm32f429x.o(.text)
    FMC_IRQHandler                           0x0800c1db   Thumb Code     0  startup_stm32f429x.o(.text)
    FPU_IRQHandler                           0x0800c1db   Thumb Code     0  startup_stm32f429x.o(.text)
    HASH_RNG_IRQHandler                      0x0800c1db   Thumb Code     0  startup_stm32f429x.o(.text)
    I2C1_ER_IRQHandler                       0x0800c1db   Thumb Code     0  startup_stm32f429x.o(.text)
    I2C1_EV_IRQHandler                       0x0800c1db   Thumb Code     0  startup_stm32f429x.o(.text)
    I2C2_ER_IRQHandler                       0x0800c1db   Thumb Code     0  startup_stm32f429x.o(.text)
    I2C2_EV_IRQHandler                       0x0800c1db   Thumb Code     0  startup_stm32f429x.o(.text)
    I2C3_ER_IRQHandler                       0x0800c1db   Thumb Code     0  startup_stm32f429x.o(.text)
    I2C3_EV_IRQHandler                       0x0800c1db   Thumb Code     0  startup_stm32f429x.o(.text)
    LTDC_ER_IRQHandler                       0x0800c1db   Thumb Code     0  startup_stm32f429x.o(.text)
    LTDC_IRQHandler                          0x0800c1db   Thumb Code     0  startup_stm32f429x.o(.text)
    OTG_FS_IRQHandler                        0x0800c1db   Thumb Code     0  startup_stm32f429x.o(.text)
    OTG_FS_WKUP_IRQHandler                   0x0800c1db   Thumb Code     0  startup_stm32f429x.o(.text)
    OTG_HS_EP1_IN_IRQHandler                 0x0800c1db   Thumb Code     0  startup_stm32f429x.o(.text)
    OTG_HS_EP1_OUT_IRQHandler                0x0800c1db   Thumb Code     0  startup_stm32f429x.o(.text)
    OTG_HS_IRQHandler                        0x0800c1db   Thumb Code     0  startup_stm32f429x.o(.text)
    OTG_HS_WKUP_IRQHandler                   0x0800c1db   Thumb Code     0  startup_stm32f429x.o(.text)
    PVD_IRQHandler                           0x0800c1db   Thumb Code     0  startup_stm32f429x.o(.text)
    RCC_IRQHandler                           0x0800c1db   Thumb Code     0  startup_stm32f429x.o(.text)
    RTC_Alarm_IRQHandler                     0x0800c1db   Thumb Code     0  startup_stm32f429x.o(.text)
    RTC_WKUP_IRQHandler                      0x0800c1db   Thumb Code     0  startup_stm32f429x.o(.text)
    SAI1_IRQHandler                          0x0800c1db   Thumb Code     0  startup_stm32f429x.o(.text)
    SDIO_IRQHandler                          0x0800c1db   Thumb Code     0  startup_stm32f429x.o(.text)
    SPI1_IRQHandler                          0x0800c1db   Thumb Code     0  startup_stm32f429x.o(.text)
    SPI2_IRQHandler                          0x0800c1db   Thumb Code     0  startup_stm32f429x.o(.text)
    SPI3_IRQHandler                          0x0800c1db   Thumb Code     0  startup_stm32f429x.o(.text)
    SPI4_IRQHandler                          0x0800c1db   Thumb Code     0  startup_stm32f429x.o(.text)
    SPI5_IRQHandler                          0x0800c1db   Thumb Code     0  startup_stm32f429x.o(.text)
    SPI6_IRQHandler                          0x0800c1db   Thumb Code     0  startup_stm32f429x.o(.text)
    TAMP_STAMP_IRQHandler                    0x0800c1db   Thumb Code     0  startup_stm32f429x.o(.text)
    TIM1_BRK_TIM9_IRQHandler                 0x0800c1db   Thumb Code     0  startup_stm32f429x.o(.text)
    TIM1_CC_IRQHandler                       0x0800c1db   Thumb Code     0  startup_stm32f429x.o(.text)
    TIM1_TRG_COM_TIM11_IRQHandler            0x0800c1db   Thumb Code     0  startup_stm32f429x.o(.text)
    TIM1_UP_TIM10_IRQHandler                 0x0800c1db   Thumb Code     0  startup_stm32f429x.o(.text)
    TIM4_IRQHandler                          0x0800c1db   Thumb Code     0  startup_stm32f429x.o(.text)
    TIM6_DAC_IRQHandler                      0x0800c1db   Thumb Code     0  startup_stm32f429x.o(.text)
    TIM7_IRQHandler                          0x0800c1db   Thumb Code     0  startup_stm32f429x.o(.text)
    TIM8_BRK_TIM12_IRQHandler                0x0800c1db   Thumb Code     0  startup_stm32f429x.o(.text)
    TIM8_CC_IRQHandler                       0x0800c1db   Thumb Code     0  startup_stm32f429x.o(.text)
    TIM8_TRG_COM_TIM14_IRQHandler            0x0800c1db   Thumb Code     0  startup_stm32f429x.o(.text)
    TIM8_UP_TIM13_IRQHandler                 0x0800c1db   Thumb Code     0  startup_stm32f429x.o(.text)
    UART8_IRQHandler                         0x0800c1db   Thumb Code     0  startup_stm32f429x.o(.text)
    USART2_IRQHandler                        0x0800c1db   Thumb Code     0  startup_stm32f429x.o(.text)
    USART3_IRQHandler                        0x0800c1db   Thumb Code     0  startup_stm32f429x.o(.text)
    WWDG_IRQHandler                          0x0800c1db   Thumb Code     0  startup_stm32f429x.o(.text)
    SystemInit                               0x0800c41f   Thumb Code    94  system_stm32f4xx.o(.text)
    SystemCoreClockUpdate                    0x0800c47d   Thumb Code   174  system_stm32f4xx.o(.text)
    fputc                                    0x0800c59d   Thumb Code    22  main.o(.text)
    Get_DIAL_Mode                            0x0800c5b3   Thumb Code    98  main.o(.text)
    main                                     0x0800c615   Thumb Code   300  main.o(.text)
    Delay                                    0x0800c741   Thumb Code    12  main.o(.text)
    WatchDogTimerReset                       0x0800c74d   Thumb Code    18  main.o(.text)
    Delays                                   0x0800c75f   Thumb Code    32  main.o(.text)
    Blink_LED_RUN                            0x0800c77f   Thumb Code    48  main.o(.text)
    resetOrReinit                            0x0800c7af   Thumb Code   142  main.o(.text)
    resetInit                                0x0800c83d   Thumb Code    16  main.o(.text)
    setSelfRefresh                           0x0800c84d   Thumb Code    50  main.o(.text)
    setNormalMode                            0x0800c87f   Thumb Code    50  main.o(.text)
    UART_Recieve                             0x0800c9e5   Thumb Code   128  veth_com_usart.o(.text)
    displaySystemCommand                     0x0800ca65   Thumb Code    70  veth_com_usart.o(.text)
    SYSTEM_CLI                               0x0800caab   Thumb Code   346  veth_com_usart.o(.text)
    IP_CLI                                   0x0800cc3f   Thumb Code   224  veth_com_usart.o(.text)
    MAC_CLI                                  0x0800cd59   Thumb Code   816  veth_com_usart.o(.text)
    New_CLI                                  0x0800d089   Thumb Code   334  veth_com_usart.o(.text)
    CLI                                      0x0800d1d7   Thumb Code   872  veth_com_usart.o(.text)
    UART_Fillin_TX                           0x0800d53f   Thumb Code    22  veth_com_usart.o(.text)
    UART_Transmit                            0x0800d555   Thumb Code    48  veth_com_usart.o(.text)
    UART_GETdata_RX                          0x0800d585   Thumb Code    22  veth_com_usart.o(.text)
    Read_from_buffer                         0x0800d59b   Thumb Code   202  veth_com_usart.o(.text)
    displayRstpCommand                       0x0800d665   Thumb Code    86  veth_com_usart.o(.text)
    RSTP_CLI                                 0x0800d6bb   Thumb Code   424  veth_com_usart.o(.text)
    getChar                                  0x0800d863   Thumb Code    26  veth_com_usart.o(.text)
    sendChar                                 0x0800d87d   Thumb Code    20  veth_com_usart.o(.text)
    Add_From_CPU_tag                         0x0800d925   Thumb Code    42  veth_eth_ap.o(.text)
    ETH_Fillin_TXBUF                         0x0800d94f   Thumb Code    26  veth_eth_ap.o(.text)
    ETH_Set_Recieve_ALLOWN                   0x0800d969   Thumb Code    32  veth_eth_ap.o(.text)
    ETH_TX_PACKET                            0x0800d989   Thumb Code    42  veth_eth_ap.o(.text)
    uip_Tx_Packet                            0x0800d9b3   Thumb Code    26  veth_eth_ap.o(.text)
    uip_Rx_Packet                            0x0800d9cd   Thumb Code   140  veth_eth_ap.o(.text)
    ETH_RX_PACKET                            0x0800da59   Thumb Code   120  veth_eth_ap.o(.text)
    ETH_Convert_DASA                         0x0800dad1   Thumb Code    28  veth_eth_ap.o(.text)
    ETH_EXCS                                 0x0800daed   Thumb Code   136  veth_eth_ap.o(.text)
    Tx_packet                                0x0800db75   Thumb Code     2  veth_eth_ap.o(.text)
    Rx_packet                                0x0800db77   Thumb Code    30  veth_eth_ap.o(.text)
    RCC_Configuration                        0x0800dbb9   Thumb Code   268  veth_hal_init.o(.text)
    NVIC_Configuration                       0x0800dcc5   Thumb Code   250  veth_hal_init.o(.text)
    GPIO_Configuration                       0x0800ddbf   Thumb Code   738  veth_hal_init.o(.text)
    USART_Configuration                      0x0800e0a1   Thumb Code   104  veth_hal_init.o(.text)
    TIMx_Configuration                       0x0800e109   Thumb Code   302  veth_hal_init.o(.text)
    Get_ms_Count                             0x0800e237   Thumb Code     6  veth_hal_init.o(.text)
    ETH_Configuration                        0x0800e23d   Thumb Code    78  veth_hal_init.o(.text)
    Variate_init                             0x0800e28b   Thumb Code    20  veth_hal_init.o(.text)
    MII_Init                                 0x0800e29f   Thumb Code   156  veth_hal_init.o(.text)
    forceLinkDown                            0x0800e33b   Thumb Code    56  veth_hal_init.o(.text)
    forceLinkUp                              0x0800e373   Thumb Code    56  veth_hal_init.o(.text)
    cancleForceLink                          0x0800e3ab   Thumb Code   148  veth_hal_init.o(.text)
    RSTP_Init                                0x0800e43f   Thumb Code   164  veth_hal_init.o(.text)
    uip_MAC_Init                             0x0800e4e3   Thumb Code   156  veth_hal_init.o(.text)
    I2C_Configuration                        0x0800e57f   Thumb Code    68  veth_hal_init.o(.text)
    SDRAM_Configuration                      0x0800e659   Thumb Code   104  veth_hal_init.o(.text)
    FLASH_Configuration                      0x0800e6c1   Thumb Code    98  veth_hal_init.o(.text)
    Modify_the_MAC                           0x0800e723   Thumb Code   410  veth_hal_init.o(.text)
    Display_the_MAC                          0x0800e8bd   Thumb Code    42  veth_hal_init.o(.text)
    getSetType                               0x0800e8e7   Thumb Code   140  veth_hal_init.o(.text)
    Update_InVariate                         0x0800e9f1   Thumb Code   220  veth_invariate.o(.text)
    setNetworkUpgradeTarg                    0x0800eacd   Thumb Code   140  veth_invariate.o(.text)
    getNetworkUpgradeTarg                    0x0800eb59   Thumb Code    20  veth_invariate.o(.text)
    Get_InVariate                            0x0800eb6d   Thumb Code    50  veth_invariate.o(.text)
    InVariate_Default                        0x0800eb9f   Thumb Code    66  veth_invariate.o(.text)
    updateInvariate                          0x0800ebeb   Thumb Code    16  veth_invariate.o(.text)
    getInvariate                             0x0800ebfb   Thumb Code    16  veth_invariate.o(.text)
    updateNewConfig                          0x0800ec0b   Thumb Code    66  veth_invariate.o(.text)
    modifyRstpInfo                           0x0800ec4d   Thumb Code   178  veth_invariate.o(.text)
    displayRstpInfo                          0x0800ecff   Thumb Code    64  veth_invariate.o(.text)
    modifyIpAddr                             0x0800ed8d   Thumb Code   630  veth_invariate.o(.text)
    displayIpInfo                            0x0800f003   Thumb Code    70  veth_invariate.o(.text)
    modifyUserName                           0x0800f049   Thumb Code   112  veth_invariate.o(.text)
    modifyPassWord                           0x0800f0b9   Thumb Code   114  veth_invariate.o(.text)
    Init_InVariate                           0x0800f169   Thumb Code    12  veth_invariate.o(.text)
    displayBasicInfo                         0x0800f175   Thumb Code   114  veth_invariate.o(.text)
    poeDemo                                  0x0800f3c3   Thumb Code    10  veth_m_4pse.o(.text)
    getPoePortStatus                         0x0800f3cd   Thumb Code   282  veth_m_4pse.o(.text)
    getPoePortEvent                          0x0800f4e7   Thumb Code   254  veth_m_4pse.o(.text)
    setPoePortConfig                         0x0800f5e5   Thumb Code   262  veth_m_4pse.o(.text)
    setPoePortOn                             0x0800f6eb   Thumb Code   316  veth_m_4pse.o(.text)
    setPoePortDown                           0x0800f827   Thumb Code   304  veth_m_4pse.o(.text)
    setPoeChipReset                          0x0800f957   Thumb Code    60  veth_m_4pse.o(.text)
    setPoePortReset                          0x0800f993   Thumb Code    78  veth_m_4pse.o(.text)
    printf_trunk_vector                      0x0800f9e5   Thumb Code    20  veth_marvell_6097f.o(.text)
    printf_mask_table                        0x0800f9f9   Thumb Code    34  veth_marvell_6097f.o(.text)
    printf_PORT_CONTROL1                     0x0800fa1b   Thumb Code    50  veth_marvell_6097f.o(.text)
    READ_PHYREGISTER                         0x0800fa4d   Thumb Code   120  veth_marvell_6097f.o(.text)
    WRITE_PHYREGISTER                        0x0800fac5   Thumb Code   120  veth_marvell_6097f.o(.text)
    set_aging_time                           0x0800fb3d   Thumb Code    58  veth_marvell_6097f.o(.text)
    get_aging_time                           0x0800fb77   Thumb Code    24  veth_marvell_6097f.o(.text)
    Marvell_MAC_upt                          0x0800fb8f   Thumb Code    96  veth_marvell_6097f.o(.text)
    Read_ATU_entry                           0x0800fbef   Thumb Code   360  veth_marvell_6097f.o(.text)
    Load_Purge_ATUentry                      0x0800fd57   Thumb Code   360  veth_marvell_6097f.o(.text)
    Flush_Move_ATUentry                      0x0800febf   Thumb Code   230  veth_marvell_6097f.o(.text)
    Set_Manual_learning_mode                 0x0800ffa5   Thumb Code    80  veth_marvell_6097f.o(.text)
    Get_Manual_learning_mode                 0x0800fff5   Thumb Code    62  veth_marvell_6097f.o(.text)
    Read_VTU_entry                           0x08010033   Thumb Code   242  veth_marvell_6097f.o(.text)
    transferVLANMember                       0x08010125   Thumb Code    94  veth_marvell_6097f.o(.text)
    LOAD_PURGE_VTU                           0x08010183   Thumb Code   212  veth_marvell_6097f.o(.text)
    Flush_VTU_entry                          0x08010257   Thumb Code    74  veth_marvell_6097f.o(.text)
    Creat_Delet_VLAN                         0x080102a1   Thumb Code   298  veth_marvell_6097f.o(.text)
    Set_VLAN_ID                              0x080103cb   Thumb Code    68  veth_marvell_6097f.o(.text)
    Set_VLAN_port_Type                       0x0801040f   Thumb Code   104  veth_marvell_6097f.o(.text)
    Set_VLAN_ingress_Type                    0x08010477   Thumb Code    72  veth_marvell_6097f.o(.text)
    Set_VLAN_egress_Type                     0x080104bf   Thumb Code     2  veth_marvell_6097f.o(.text)
    Set_PORT_VLAN_VECTOR                     0x080104c1   Thumb Code    74  veth_marvell_6097f.o(.text)
    Clear_ALL_COUNTER                        0x0801050b   Thumb Code   180  veth_marvell_6097f.o(.text)
    Read_A_CAPTURED_COUNTER                  0x080105bf   Thumb Code   236  veth_marvell_6097f.o(.text)
    Read_PORT_COUNTERs                       0x080106ab   Thumb Code   570  veth_marvell_6097f.o(.text)
    Get_Port_Counters_rou                    0x080108e5   Thumb Code   348  veth_marvell_6097f.o(.text)
    Get_Port_Counters_det                    0x08010a41   Thumb Code   706  veth_marvell_6097f.o(.text)
    Change_COUNTER_mode                      0x08010d03   Thumb Code    88  veth_marvell_6097f.o(.text)
    getCounterMode                           0x08010d5b   Thumb Code    26  veth_marvell_6097f.o(.text)
    Set_Trunk_port                           0x08010d75   Thumb Code   126  veth_marvell_6097f.o(.text)
    Set_TRUNK_TABLE                          0x08010df3   Thumb Code   366  veth_marvell_6097f.o(.text)
    Clear_A_trunk                            0x08010f61   Thumb Code   420  veth_marvell_6097f.o(.text)
    Clear_ALL_trunks                         0x08011105   Thumb Code   222  veth_marvell_6097f.o(.text)
    Set_Switch_Port_state                    0x080111e3   Thumb Code   132  veth_marvell_6097f.o(.text)
    Get_Port_status                          0x08011267   Thumb Code    40  veth_marvell_6097f.o(.text)
    Get_Oper_speed                           0x0801128f   Thumb Code    88  veth_marvell_6097f.o(.text)
    Get_Port_duplex                          0x080112e7   Thumb Code    56  veth_marvell_6097f.o(.text)
    Get_Port_cost                            0x0801131f   Thumb Code    16  veth_marvell_6097f.o(.text)
    Get_Port_Type                            0x0801132f   Thumb Code    32  veth_marvell_6097f.o(.text)
    Set_PORT_STATS                           0x0801134f   Thumb Code   632  veth_marvell_6097f.o(.text)
    Set_FLOW_CONTROL                         0x080115c7   Thumb Code   226  veth_marvell_6097f.o(.text)
    Get_FLOW_STATUS                          0x080116a9   Thumb Code    40  veth_marvell_6097f.o(.text)
    Str_cmp                                  0x080116d1   Thumb Code    36  veth_marvell_6097f.o(.text)
    Str_cpy                                  0x080116f5   Thumb Code    22  veth_marvell_6097f.o(.text)
    SystemClock_Config                       0x08011711   Thumb Code   128  veth_system_clock.o(.text)
    NMI_Handler                              0x08011799   Thumb Code     2  stm32f4xx_it.o(.text)
    HardFault_Handler                        0x0801179b   Thumb Code     4  stm32f4xx_it.o(.text)
    MemManage_Handler                        0x0801179f   Thumb Code     4  stm32f4xx_it.o(.text)
    BusFault_Handler                         0x080117a3   Thumb Code     4  stm32f4xx_it.o(.text)
    UsageFault_Handler                       0x080117a7   Thumb Code     4  stm32f4xx_it.o(.text)
    SVC_Handler                              0x080117ab   Thumb Code     2  stm32f4xx_it.o(.text)
    DebugMon_Handler                         0x080117ad   Thumb Code     2  stm32f4xx_it.o(.text)
    PendSV_Handler                           0x080117af   Thumb Code     2  stm32f4xx_it.o(.text)
    SysTick_Handler                          0x080117b1   Thumb Code     8  stm32f4xx_it.o(.text)
    TIM2_IRQHandler                          0x080117b9   Thumb Code    10  stm32f4xx_it.o(.text)
    TIM5_IRQHandler                          0x080117c3   Thumb Code    10  stm32f4xx_it.o(.text)
    TIM3_IRQHandler                          0x080117cd   Thumb Code    10  stm32f4xx_it.o(.text)
    USART6_IRQHandler                        0x080117d7   Thumb Code    10  stm32f4xx_it.o(.text)
    USART1_IRQHandler                        0x080117e1   Thumb Code    10  stm32f4xx_it.o(.text)
    UART5_IRQHandler                         0x080117eb   Thumb Code    10  stm32f4xx_it.o(.text)
    UART7_IRQHandler                         0x080117f5   Thumb Code    10  stm32f4xx_it.o(.text)
    UART4_IRQHandler                         0x080117ff   Thumb Code    10  stm32f4xx_it.o(.text)
    I2C1_EV_Handler                          0x08011809   Thumb Code    10  stm32f4xx_it.o(.text)
    I2C1_ER_Handler                          0x08011813   Thumb Code    10  stm32f4xx_it.o(.text)
    DMA2_Stream1_IRQHandler                  0x0801181d   Thumb Code    12  stm32f4xx_it.o(.text)
    DMA2_Stream6_IRQHandler                  0x08011829   Thumb Code    12  stm32f4xx_it.o(.text)
    DMA1_Stream0_IRQHandler                  0x08011835   Thumb Code    12  stm32f4xx_it.o(.text)
    DMA1_Stream7_IRQHandler                  0x08011841   Thumb Code    12  stm32f4xx_it.o(.text)
    DMA1_Stream3_IRQHandler                  0x0801184d   Thumb Code    12  stm32f4xx_it.o(.text)
    DMA1_Stream1_IRQHandler                  0x08011859   Thumb Code    12  stm32f4xx_it.o(.text)
    DMA1_Stream2_IRQHandler                  0x08011865   Thumb Code    12  stm32f4xx_it.o(.text)
    DMA1_Stream4_IRQHandler                  0x08011871   Thumb Code    12  stm32f4xx_it.o(.text)
    CREATE_RSTP_INSTANCE                     0x080118ab   Thumb Code   106  veth_rstp.o(.text)
    configRSTP                               0x08011915   Thumb Code    30  veth_rstp.o(.text)
    RSTP                                     0x080119ed   Thumb Code   192  veth_rstp.o(.text)
    htrnl                                    0x08011ad1   Thumb Code    48  veth_ntoh.o(.text)
    htrns                                    0x08011b01   Thumb Code    56  veth_ntoh.o(.text)
    ntrhl                                    0x08011b39   Thumb Code    50  veth_ntoh.o(.text)
    ntrhs                                    0x08011b6b   Thumb Code    56  veth_ntoh.o(.text)
    setComPortDirect                         0x08011bb7   Thumb Code    66  veth_serial.o(.text)
    resetComPortDirect                       0x08011bf9   Thumb Code    66  veth_serial.o(.text)
    DmaXferCpltCallback                      0x08011c3b   Thumb Code  1044  veth_serial.o(.text)
    fillinComBuffer2                         0x0801204f   Thumb Code    60  veth_serial.o(.text)
    halUartTransmitDmaLittle                 0x0801208b   Thumb Code   350  veth_serial.o(.text)
    fillinComBuffer1                         0x080121e9   Thumb Code    44  veth_serial.o(.text)
    uartDmaXferM1CpltCallback                0x08012215   Thumb Code  2060  veth_serial.o(.text)
    uartDmaXferCpltCallback                  0x08012a21   Thumb Code  1886  veth_serial.o(.text)
    halUartTransmitDma                       0x0801317f   Thumb Code   886  veth_serial.o(.text)
    uartTransfer                             0x080134f5   Thumb Code   324  veth_serial.o(.text)
    serialServer                             0x08013639   Thumb Code    28  veth_serial.o(.text)
    fillinComBuffer                          0x08013655   Thumb Code   210  veth_serial.o(.text)
    addToComBuffer                           0x08013727   Thumb Code   190  veth_serial.o(.text)
    halUartRecieveDma                        0x08013afd   Thumb Code   480  veth_serial.o(.text)
    serialClient                             0x08013cdd   Thumb Code    74  veth_serial.o(.text)
    uartRecieveIdleCallback                  0x08013d27   Thumb Code    32  veth_serial.o(.text)
    com4DmaInit                              0x08013ea5   Thumb Code   302  veth_serial.o(.text)
    com3DmaInit                              0x08013fd3   Thumb Code   300  veth_serial.o(.text)
    com2DmaInit                              0x080140ff   Thumb Code   454  veth_serial.o(.text)
    com1DmaInit                              0x080142c5   Thumb Code   302  veth_serial.o(.text)
    testSerial                               0x080143f3   Thumb Code    40  veth_serial.o(.text)
    CreateFIFO                               0x08014479   Thumb Code    42  fifo.o(.text)
    InitFIFO                                 0x080144a3   Thumb Code    28  fifo.o(.text)
    WriteFIFO                                0x080144bf   Thumb Code    92  fifo.o(.text)
    ReadFIFO                                 0x0801451b   Thumb Code    90  fifo.o(.text)
    CheckFIFOLength                          0x08014575   Thumb Code     6  fifo.o(.text)
    CheckCurrentWritePoint                   0x0801457b   Thumb Code    10  fifo.o(.text)
    CheckCurrentReadPoint                    0x08014585   Thumb Code    10  fifo.o(.text)
    FreeFIFO                                 0x0801458f   Thumb Code    12  fifo.o(.text)
    CheckCanWriteNum                         0x0801459b   Thumb Code    32  fifo.o(.text)
    CheckCanReadNum                          0x080145bb   Thumb Code    32  fifo.o(.text)
    STP_edge_get_state_name                  0x080145dd   Thumb Code    22  edge.o(.text)
    STP_edge_enter_state                     0x080145f3   Thumb Code    98  edge.o(.text)
    STP_edge_check_conditions                0x08014655   Thumb Code   144  edge.o(.text)
    STP_migrate_get_state_name               0x080146f1   Thumb Code    22  migrate.o(.text)
    STP_migrate_enter_state                  0x08014707   Thumb Code   118  migrate.o(.text)
    STP_migrate_check_conditions             0x0801477d   Thumb Code   258  migrate.o(.text)
    STP_p2p_get_state_name                   0x0801488d   Thumb Code    22  p2p.o(.text)
    STP_p2p_enter_state                      0x080148cb   Thumb Code    60  p2p.o(.text)
    STP_p2p_check_conditions                 0x08014907   Thumb Code    72  p2p.o(.text)
    STP_pcost_get_state_name                 0x0801495d   Thumb Code    22  pcost.o(.text)
    STP_pcost_enter_state                    0x080149ef   Thumb Code    88  pcost.o(.text)
    STP_pcost_check_conditions               0x08014a47   Thumb Code   118  pcost.o(.text)
    STP_port_create                          0x08014ae1   Thumb Code   526  port.o(.text)
    STP_port_init                            0x08014cef   Thumb Code   110  port.o(.text)
    STP_port_delete                          0x08014d5d   Thumb Code   112  port.o(.text)
    STP_port_rx_bpdu                         0x08014dcd   Thumb Code    22  port.o(.text)
    STP_info_get_state_name                  0x08014edd   Thumb Code    22  portinfo.o(.text)
    STP_info_rx_bpdu                         0x080150a1   Thumb Code   182  portinfo.o(.text)
    STP_info_enter_state                     0x08015157   Thumb Code   422  portinfo.o(.text)
    STP_info_check_conditions                0x080152fd   Thumb Code   332  portinfo.o(.text)
    STP_rolesel_get_state_name               0x08015449   Thumb Code    22  rolesel.o(.text)
    STP_rolesel_enter_state                  0x08015711   Thumb Code    56  rolesel.o(.text)
    STP_rolesel_check_conditions             0x08015749   Thumb Code    92  rolesel.o(.text)
    STP_rolesel_update_stpm                  0x080157a5   Thumb Code   236  rolesel.o(.text)
    STP_roletrns_get_state_name              0x08015891   Thumb Code    22  roletrns.o(.text)
    STP_roletrns_enter_state                 0x0801592d   Thumb Code   386  roletrns.o(.text)
    STP_roletrns_check_conditions            0x08015aaf   Thumb Code   960  roletrns.o(.text)
    STP_state_mach_create                    0x08015e71   Thumb Code    60  statmch.o(.text)
    STP_state_mach_delete                    0x08015ead   Thumb Code    36  statmch.o(.text)
    STP_check_condition                      0x08015ed1   Thumb Code    22  statmch.o(.text)
    STP_change_state                         0x08015ee7   Thumb Code    36  statmch.o(.text)
    STP_hop_2_state                          0x08015f0b   Thumb Code    10  statmch.o(.text)
    stpapi_stpm_find                         0x08015f55   Thumb Code    32  stp_in.o(.text)
    stp_in_stpm_create                       0x08015f75   Thumb Code   108  stp_in.o(.text)
    _stp_in_stpm_enable                      0x08015fe1   Thumb Code   158  stp_in.o(.text)
    STP_IN_init                              0x08016175   Thumb Code     6  stp_in.o(.text)
    STP_IN_stpm_get_cfg                      0x0801617b   Thumb Code   144  stp_in.o(.text)
    STP_IN_port_get_cfg                      0x0801620b   Thumb Code   138  stp_in.o(.text)
    STP_IN_port_get_state                    0x08016295   Thumb Code   432  stp_in.o(.text)
    STP_IN_stpm_get_state                    0x08016445   Thumb Code   108  stp_in.o(.text)
    STP_IN_stpm_get_name_by_vlan_id          0x080164b1   Thumb Code    72  stp_in.o(.text)
    STP_IN_enable_port                       0x080164f9   Thumb Code   100  stp_in.o(.text)
    STP_IN_changed_port_speed                0x0801655d   Thumb Code    98  stp_in.o(.text)
    STP_IN_changed_port_duplex               0x080165bf   Thumb Code    92  stp_in.o(.text)
    STP_IN_check_bpdu_header                 0x0801661b   Thumb Code    84  stp_in.o(.text)
    STP_IN_rx_bpdu                           0x0801666f   Thumb Code   156  stp_in.o(.text)
    STP_IN_one_second                        0x0801670b   Thumb Code    66  stp_in.o(.text)
    STP_IN_stpm_set_cfg                      0x0801674d   Thumb Code   342  stp_in.o(.text)
    STP_IN_set_port_cfg                      0x080168a3   Thumb Code   314  stp_in.o(.text)
    STP_IN_get_error_explanation             0x080169dd   Thumb Code    26  stp_in.o(.text)
    STP_STPM_IN_create                       0x080169f7   Thumb Code    70  stp_in.o(.text)
    STP_IN_stpm_delete                       0x08016a3d   Thumb Code    62  stp_in.o(.text)
    STP_IN_stpm_get_vlan_id_by_name          0x08016a7b   Thumb Code    54  stp_in.o(.text)
    STP_IN_get_is_stpm_enabled               0x08016ab1   Thumb Code    30  stp_in.o(.text)
    STP_IN_stop_all                          0x08016acf   Thumb Code    42  stp_in.o(.text)
    STP_IN_delete_all                        0x08016af9   Thumb Code    34  stp_in.o(.text)
    STP_OUT_set_which_port                   0x08016b55   Thumb Code     2  stp_to.o(.text)
    STP_OUT_set_port_state                   0x08016b57   Thumb Code    20  stp_to.o(.text)
    STP_OUT_get_port_mac                     0x08016b6b   Thumb Code    46  stp_to.o(.text)
    STP_OUT_get_port_link_status             0x08016b99   Thumb Code    12  stp_to.o(.text)
    STP_OUT_flush_lt                         0x08016ba5   Thumb Code    30  stp_to.o(.text)
    STP_OUT_set_hardware_mode                0x08016bc3   Thumb Code     6  stp_to.o(.text)
    STP_OUT_tx_bpdu                          0x08016bc9   Thumb Code    30  stp_to.o(.text)
    STP_OUT_get_port_name                    0x08016be7   Thumb Code    18  stp_to.o(.text)
    STP_OUT_get_deafult_port_path_cost       0x08016bf9   Thumb Code    12  stp_to.o(.text)
    STP_OUT_get_port_oper_speed              0x08016c05   Thumb Code    12  stp_to.o(.text)
    STP_OUT_get_duplex                       0x08016c11   Thumb Code    12  stp_to.o(.text)
    STP_OUT_get_init_stpm_cfg                0x08016c1d   Thumb Code    50  stp_to.o(.text)
    STP_OUT_get_init_port_cfg                0x08016c4f   Thumb Code    34  stp_to.o(.text)
    funct                                    0x08016c85   Thumb Code     6  stpm.o(.text)
    _stp_stpm_init_data                      0x08016cf9   Thumb Code    44  stpm.o(.text)
    STP_stpm_update                          0x08016d3d   Thumb Code    44  stpm.o(.text)
    STP_stpm_one_second                      0x08016d69   Thumb Code   132  stpm.o(.text)
    STP_stpm_create                          0x08016e07   Thumb Code    76  stpm.o(.text)
    STP_stpm_stop                            0x08016e53   Thumb Code     2  stpm.o(.text)
    STP_stpm_check_bridge_priority           0x08016e55   Thumb Code    50  stpm.o(.text)
    STP_compute_bridge_id                    0x08016e87   Thumb Code    60  stpm.o(.text)
    STP_stpm_start                           0x08016ec3   Thumb Code    94  stpm.o(.text)
    STP_stpm_enable                          0x08016f21   Thumb Code    52  stpm.o(.text)
    STP_stpm_delete                          0x08016f55   Thumb Code   168  stpm.o(.text)
    STP_stpm_get_the_list                    0x08016ffd   Thumb Code     6  stpm.o(.text)
    STP_stpm_update_after_bridge_management  0x08017003   Thumb Code    26  stpm.o(.text)
    STP_stpm_get_port_name_by_id             0x0801701d   Thumb Code    32  stpm.o(.text)
    STP_sttrans_get_state_name               0x080170e9   Thumb Code    22  sttrans.o(.text)
    STP_sttrans_enter_state                  0x080170ff   Thumb Code   118  sttrans.o(.text)
    STP_sttrans_check_conditions             0x08017175   Thumb Code   114  sttrans.o(.text)
    STP_compare_times                        0x080171f5   Thumb Code   110  times.o(.text)
    STP_get_times                            0x08017263   Thumb Code    54  times.o(.text)
    STP_set_times                            0x08017299   Thumb Code   102  times.o(.text)
    STP_copy_times                           0x080172ff   Thumb Code    18  times.o(.text)
    STP_topoch_get_state_name                0x08017311   Thumb Code    22  topoch.o(.text)
    STP_topoch_enter_state                   0x08017383   Thumb Code   192  topoch.o(.text)
    STP_topoch_check_conditions              0x08017443   Thumb Code   290  topoch.o(.text)
    STP_transmit_get_state_name              0x08017589   Thumb Code    22  transmit.o(.text)
    STP_transmit_enter_state                 0x08017757   Thumb Code   180  transmit.o(.text)
    STP_transmit_check_conditions            0x0801780b   Thumb Code   236  transmit.o(.text)
    Print_packet                             0x080178f7   Thumb Code    34  transmit.o(.text)
    STP_VECT_compare_bridge_id               0x08017945   Thumb Code    44  vector.o(.text)
    STP_VECT_copy                            0x08017971   Thumb Code    18  vector.o(.text)
    STP_VECT_create                          0x08017983   Thumb Code    30  vector.o(.text)
    STP_VECT_compare_vector                  0x080179a1   Thumb Code    94  vector.o(.text)
    STP_VECT_get_vector                      0x08017a53   Thumb Code    48  vector.o(.text)
    STP_VECT_set_vector                      0x08017a83   Thumb Code    50  vector.o(.text)
    fillinPackageBuffer                      0x08017ab5   Thumb Code    34  veth_netupgrade.o(.text)
    saveNetData                              0x08017ad7   Thumb Code    48  veth_netupgrade.o(.text)
    Set_Age_time                             0x08017b19   Thumb Code    20  veth_mac.o(.text)
    Get_Age_time                             0x08017b2d   Thumb Code    14  veth_mac.o(.text)
    Add_or_Delet_MACentry                    0x08017b5f   Thumb Code   152  veth_mac.o(.text)
    Display_ALL_MACentry                     0x08017bf7   Thumb Code    90  veth_mac.o(.text)
    Flush_MAC_entry                          0x08017c51   Thumb Code    16  veth_mac.o(.text)
    Set_MAC_forbid                           0x08017c61   Thumb Code    12  veth_mac.o(.text)
    Get_MAC_forbid                           0x08017c6d   Thumb Code     8  veth_mac.o(.text)
    Display_sta_MAC_entry                    0x08017c75   Thumb Code   104  veth_mac.o(.text)
    MAC_demo                                 0x08017cdd   Thumb Code  1474  veth_mac.o(.text)
    printStatus                              0x080182a1   Thumb Code   226  veth_port.o(.text)
    Get_duplex_status                        0x08018383   Thumb Code    12  veth_port.o(.text)
    Get_speed_status                         0x0801838f   Thumb Code    12  veth_port.o(.text)
    Get_link_status                          0x0801839b   Thumb Code    12  veth_port.o(.text)
    printPortStatus                          0x080183a7   Thumb Code    54  veth_port.o(.text)
    Display_Rough_Statistics                 0x08018933   Thumb Code    16  veth_port.o(.text)
    getStatsMode                             0x08018943   Thumb Code    16  veth_port.o(.text)
    changeStatsMode                          0x08018953   Thumb Code    22  veth_port.o(.text)
    Display_Detail_Statistics                0x08018969   Thumb Code    16  veth_port.o(.text)
    Flush_ALL_counters                       0x08018979   Thumb Code    18  veth_port.o(.text)
    Flush_Port_counters                      0x0801898b   Thumb Code    12  veth_port.o(.text)
    Get_max_package                          0x08018997   Thumb Code     6  veth_port.o(.text)
    Get_flow_status                          0x0801899d   Thumb Code    12  veth_port.o(.text)
    Set_flow_control                         0x080189a9   Thumb Code    16  veth_port.o(.text)
    Set_port_status                          0x080189b9   Thumb Code    16  veth_port.o(.text)
    getPortType                              0x080189c9   Thumb Code   872  veth_port.o(.text)
    Port_demo                                0x08018d31   Thumb Code   518  veth_port.o(.text)
    setFilterdFrames                         0x08019059   Thumb Code    16  veth_vlan.o(.text)
    setPortVlanId                            0x08019069   Thumb Code    16  veth_vlan.o(.text)
    setSecurityLevel                         0x08019079   Thumb Code    16  veth_vlan.o(.text)
    displayVlanMembers                       0x08019089   Thumb Code   168  veth_vlan.o(.text)
    VLANDemo                                 0x08019131   Thumb Code   200  veth_vlan.o(.text)
    setVlanMember                            0x080191f9   Thumb Code    16  veth_vlan.o(.text)
    comDemo                                  0x08019265   Thumb Code     2  veth_com.o(.text)
    setComProperty                           0x08019267   Thumb Code   194  veth_com.o(.text)
    setChipMode                              0x08019329   Thumb Code   348  veth_com.o(.text)
    setComMode                               0x08019485   Thumb Code    94  veth_com.o(.text)
    HAL_MspInit                              0x08019505   Thumb Code     2  stm32f4xx_hal.o(.text)
    HAL_Init                                 0x08019507   Thumb Code    56  stm32f4xx_hal.o(.text)
    HAL_MspDeInit                            0x0801953f   Thumb Code     2  stm32f4xx_hal.o(.text)
    HAL_DeInit                               0x08019541   Thumb Code    64  stm32f4xx_hal.o(.text)
    HAL_IncTick                              0x08019581   Thumb Code    12  stm32f4xx_hal.o(.text)
    HAL_GetTick                              0x0801958d   Thumb Code     6  stm32f4xx_hal.o(.text)
    HAL_Get0_1ms                             0x08019593   Thumb Code     6  stm32f4xx_hal.o(.text)
    HAL_Delay                                0x08019599   Thumb Code    22  stm32f4xx_hal.o(.text)
    HAL_GetHalVersion                        0x080195af   Thumb Code     6  stm32f4xx_hal.o(.text)
    HAL_GetREVID                             0x080195b5   Thumb Code     8  stm32f4xx_hal.o(.text)
    HAL_GetDEVID                             0x080195bd   Thumb Code    10  stm32f4xx_hal.o(.text)
    HAL_EnableDBGSleepMode                   0x080195c7   Thumb Code    14  stm32f4xx_hal.o(.text)
    HAL_DisableDBGSleepMode                  0x080195d5   Thumb Code    14  stm32f4xx_hal.o(.text)
    HAL_EnableDBGStopMode                    0x080195e3   Thumb Code    14  stm32f4xx_hal.o(.text)
    HAL_DisableDBGStopMode                   0x080195f1   Thumb Code    14  stm32f4xx_hal.o(.text)
    HAL_EnableDBGStandbyMode                 0x080195ff   Thumb Code    14  stm32f4xx_hal.o(.text)
    HAL_DisableDBGStandbyMode                0x0801960d   Thumb Code    14  stm32f4xx_hal.o(.text)
    HAL_EnableCompensationCell               0x0801961b   Thumb Code     8  stm32f4xx_hal.o(.text)
    HAL_DisableCompensationCell              0x08019623   Thumb Code     8  stm32f4xx_hal.o(.text)
    HAL_EnableMemorySwappingBank             0x0801962b   Thumb Code     8  stm32f4xx_hal.o(.text)
    HAL_DisableMemorySwappingBank            0x08019633   Thumb Code     8  stm32f4xx_hal.o(.text)
    HAL_NVIC_SetPriorityGrouping             0x08019679   Thumb Code    36  stm32f4xx_hal_cortex.o(.text)
    HAL_NVIC_SetPriority                     0x0801969d   Thumb Code   124  stm32f4xx_hal_cortex.o(.text)
    HAL_NVIC_EnableIRQ                       0x08019719   Thumb Code    28  stm32f4xx_hal_cortex.o(.text)
    HAL_NVIC_DisableIRQ                      0x08019735   Thumb Code    22  stm32f4xx_hal_cortex.o(.text)
    HAL_NVIC_SystemReset                     0x0801974b   Thumb Code    38  stm32f4xx_hal_cortex.o(.text)
    HAL_SYSTICK_Config                       0x08019771   Thumb Code    52  stm32f4xx_hal_cortex.o(.text)
    HAL_NVIC_GetPriorityGrouping             0x080197a5   Thumb Code     8  stm32f4xx_hal_cortex.o(.text)
    HAL_NVIC_GetPriority                     0x080197ad   Thumb Code   138  stm32f4xx_hal_cortex.o(.text)
    HAL_NVIC_SetPendingIRQ                   0x08019837   Thumb Code    24  stm32f4xx_hal_cortex.o(.text)
    HAL_NVIC_GetPendingIRQ                   0x0801984f   Thumb Code    38  stm32f4xx_hal_cortex.o(.text)
    HAL_NVIC_ClearPendingIRQ                 0x08019875   Thumb Code    22  stm32f4xx_hal_cortex.o(.text)
    HAL_NVIC_GetActive                       0x0801988b   Thumb Code    38  stm32f4xx_hal_cortex.o(.text)
    HAL_SYSTICK_CLKSourceConfig              0x080198b1   Thumb Code    40  stm32f4xx_hal_cortex.o(.text)
    HAL_SYSTICK_Callback                     0x080198d9   Thumb Code     2  stm32f4xx_hal_cortex.o(.text)
    HAL_SYSTICK_IRQHandler                   0x080198db   Thumb Code     8  stm32f4xx_hal_cortex.o(.text)
    HAL_DMA_Init                             0x08019905   Thumb Code   120  stm32f4xx_hal_dma.o(.text)
    HAL_DMA_DeInit                           0x0801997d   Thumb Code  4108  stm32f4xx_hal_dma.o(.text)
    HAL_DMA_Start                            0x0801a9a9   Thumb Code    82  stm32f4xx_hal_dma.o(.text)
    HAL_DMA_Start_IT                         0x0801a9fb   Thumb Code   170  stm32f4xx_hal_dma.o(.text)
    HAL_DMA_Abort                            0x0801aaa5   Thumb Code    92  stm32f4xx_hal_dma.o(.text)
    HAL_DMA_PollForTransfer                  0x0801ab01   Thumb Code  9522  stm32f4xx_hal_dma.o(.text)
    HAL_DMA_IRQHandler                       0x0801d033   Thumb Code  8362  stm32f4xx_hal_dma.o(.text)
    HAL_DMA_Rx_IRQHandler                    0x0801f0dd   Thumb Code  9116  stm32f4xx_hal_dma.o(.text)
    HAL_DMA_GetState                         0x08021479   Thumb Code     8  stm32f4xx_hal_dma.o(.text)
    HAL_DMA_GetError                         0x08021481   Thumb Code     6  stm32f4xx_hal_dma.o(.text)
    HAL_DMAEx_MultiBufferStart               0x080214c1   Thumb Code   130  stm32f4xx_hal_dma_ex.o(.text)
    HAL_DMAEx_MultiBufferStart_IT            0x08021543   Thumb Code   176  stm32f4xx_hal_dma_ex.o(.text)
    HAL_DMAeRx_MultiBufferStart_IT           0x080215f3   Thumb Code   182  stm32f4xx_hal_dma_ex.o(.text)
    HAL_DMAEx_ChangeMemory                   0x080216a9   Thumb Code    18  stm32f4xx_hal_dma_ex.o(.text)
    HAL_ETH_MspInit                          0x0802194f   Thumb Code     2  stm32f4xx_hal_eth.o(.text)
    HAL_ETH_Init                             0x08021951   Thumb Code   218  stm32f4xx_hal_eth.o(.text)
    HAL_ETH_MspDeInit                        0x08021a2b   Thumb Code     2  stm32f4xx_hal_eth.o(.text)
    HAL_ETH_DeInit                           0x08021a2d   Thumb Code    32  stm32f4xx_hal_eth.o(.text)
    HAL_ETH_DMATxDescListInit                0x08021a4d   Thumb Code   176  stm32f4xx_hal_eth.o(.text)
    HAL_ETH_DMARxDescListInit                0x08021afd   Thumb Code   140  stm32f4xx_hal_eth.o(.text)
    HAL_ETH_TransmitFrame                    0x08021b89   Thumb Code   318  stm32f4xx_hal_eth.o(.text)
    HAL_ETH_GetReceivedFrame                 0x08021cc7   Thumb Code   176  stm32f4xx_hal_eth.o(.text)
    HAL_ETH_GetReceivedFrame_IT              0x08021d77   Thumb Code   186  stm32f4xx_hal_eth.o(.text)
    HAL_ETH_ErrorCallback                    0x08021e31   Thumb Code     2  stm32f4xx_hal_eth.o(.text)
    HAL_ETH_TxCpltCallback                   0x08021e33   Thumb Code     2  stm32f4xx_hal_eth.o(.text)
    HAL_ETH_RxCpltCallback                   0x08021e35   Thumb Code     2  stm32f4xx_hal_eth.o(.text)
    HAL_ETH_IRQHandler                       0x08021e37   Thumb Code   164  stm32f4xx_hal_eth.o(.text)
    HAL_ETH_ReadPHYRegister                  0x08021edb   Thumb Code   126  stm32f4xx_hal_eth.o(.text)
    HAL_ETH_WritePHYRegister                 0x08021f59   Thumb Code   126  stm32f4xx_hal_eth.o(.text)
    HAL_ETH_Start                            0x0802208b   Thumb Code    82  stm32f4xx_hal_eth.o(.text)
    HAL_ETH_Stop                             0x08022159   Thumb Code    82  stm32f4xx_hal_eth.o(.text)
    HAL_ETH_ConfigMAC                        0x080221ab   Thumb Code   314  stm32f4xx_hal_eth.o(.text)
    HAL_ETH_ConfigDMA                        0x080222e5   Thumb Code   196  stm32f4xx_hal_eth.o(.text)
    HAL_ETH_GetState                         0x080223a9   Thumb Code     8  stm32f4xx_hal_eth.o(.text)
    FLASH_WaitForLastOperation               0x0802245d   Thumb Code    60  stm32f4xx_hal_flash.o(.text)
    HAL_FLASH_Program                        0x08022539   Thumb Code   146  stm32f4xx_hal_flash.o(.text)
    HAL_FLASH_Program_IT                     0x080225cb   Thumb Code   136  stm32f4xx_hal_flash.o(.text)
    HAL_FLASH_OperationErrorCallback         0x08022653   Thumb Code     2  stm32f4xx_hal_flash.o(.text)
    HAL_FLASH_EndOfOperationCallback         0x08022655   Thumb Code     2  stm32f4xx_hal_flash.o(.text)
    HAL_FLASH_IRQHandler                     0x08022657   Thumb Code   310  stm32f4xx_hal_flash.o(.text)
    HAL_FLASH_Unlock                         0x0802278d   Thumb Code    52  stm32f4xx_hal_flash.o(.text)
    HAL_FLASH_Lock                           0x080227c1   Thumb Code    16  stm32f4xx_hal_flash.o(.text)
    HAL_FLASH_OB_Unlock                      0x080227d1   Thumb Code    34  stm32f4xx_hal_flash.o(.text)
    HAL_FLASH_OB_Lock                        0x080227f3   Thumb Code    20  stm32f4xx_hal_flash.o(.text)
    HAL_FLASH_OB_Launch                      0x08022807   Thumb Code    28  stm32f4xx_hal_flash.o(.text)
    HAL_FLASH_GetError                       0x08022823   Thumb Code     6  stm32f4xx_hal_flash.o(.text)
    FLASH_Erase_Sector                       0x08022839   Thumb Code   104  stm32f4xx_hal_flash_ex.o(.text)
    HAL_FLASHEx_Erase                        0x080228f9   Thumb Code   180  stm32f4xx_hal_flash_ex.o(.text)
    HAL_FLASHEx_Erase_IT                     0x080229ad   Thumb Code   112  stm32f4xx_hal_flash_ex.o(.text)
    HAL_FLASHEx_OBProgram                    0x08022bad   Thumb Code   172  stm32f4xx_hal_flash_ex.o(.text)
    HAL_FLASHEx_OBGetConfig                  0x08022c85   Thumb Code    34  stm32f4xx_hal_flash_ex.o(.text)
    HAL_FLASHEx_AdvOBProgram                 0x08022d9b   Thumb Code    68  stm32f4xx_hal_flash_ex.o(.text)
    HAL_FLASHEx_AdvOBGetConfig               0x08022ddf   Thumb Code    24  stm32f4xx_hal_flash_ex.o(.text)
    HAL_FLASHEx_OB_SelectPCROP               0x08022df7   Thumb Code    26  stm32f4xx_hal_flash_ex.o(.text)
    HAL_FLASHEx_OB_DeSelectPCROP             0x08022e11   Thumb Code    22  stm32f4xx_hal_flash_ex.o(.text)
    HAL_FLASHEx_OB_GetBank2WRP               0x08022e27   Thumb Code     8  stm32f4xx_hal_flash_ex.o(.text)
    HAL_GPIO_Init                            0x08022e35   Thumb Code   586  stm32f4xx_hal_gpio.o(.text)
    HAL_GPIO_DeInit                          0x0802307f   Thumb Code   200  stm32f4xx_hal_gpio.o(.text)
    HAL_GPIO_ReadPin                         0x08023147   Thumb Code    16  stm32f4xx_hal_gpio.o(.text)
    HAL_GPIO_WritePin                        0x08023157   Thumb Code    10  stm32f4xx_hal_gpio.o(.text)
    HAL_GPIO_TogglePin                       0x08023161   Thumb Code     8  stm32f4xx_hal_gpio.o(.text)
    HAL_GPIO_EXTI_Callback                   0x08023169   Thumb Code     2  stm32f4xx_hal_gpio.o(.text)
    HAL_GPIO_EXTI_IRQHandler                 0x0802316b   Thumb Code    28  stm32f4xx_hal_gpio.o(.text)
    HAL_I2C_MspInit                          0x080231bd   Thumb Code     2  stm32f4xx_hal_i2c.o(.text)
    HAL_I2C_Init                             0x080231bf   Thumb Code   274  stm32f4xx_hal_i2c.o(.text)
    HAL_I2C_MspDeInit                        0x080232d1   Thumb Code     2  stm32f4xx_hal_i2c.o(.text)
    HAL_I2C_DeInit                           0x080232d3   Thumb Code    56  stm32f4xx_hal_i2c.o(.text)
    HAL_I2C_Master_Transmit                  0x08023515   Thumb Code   290  stm32f4xx_hal_i2c.o(.text)
    HAL_I2C_Master_Receive                   0x08023729   Thumb Code   556  stm32f4xx_hal_i2c.o(.text)
    HAL_I2C_Slave_Transmit                   0x08023955   Thumb Code   316  stm32f4xx_hal_i2c.o(.text)
    HAL_I2C_Slave_Receive                    0x08023a91   Thumb Code   278  stm32f4xx_hal_i2c.o(.text)
    HAL_I2C_Master_Transmit_IT               0x08023ba7   Thumb Code   174  stm32f4xx_hal_i2c.o(.text)
    HAL_I2C_Master_Receive_IT                0x08023c55   Thumb Code   274  stm32f4xx_hal_i2c.o(.text)
    HAL_I2C_Slave_Transmit_IT                0x08023d67   Thumb Code   116  stm32f4xx_hal_i2c.o(.text)
    HAL_I2C_Slave_Receive_IT                 0x08023ddb   Thumb Code   126  stm32f4xx_hal_i2c.o(.text)
    HAL_I2C_ErrorCallback                    0x08023e59   Thumb Code     2  stm32f4xx_hal_i2c.o(.text)
    HAL_I2C_MasterTxCpltCallback             0x08023e8b   Thumb Code     2  stm32f4xx_hal_i2c.o(.text)
    HAL_I2C_Master_Transmit_DMA              0x08023eff   Thumb Code   200  stm32f4xx_hal_i2c.o(.text)
    HAL_I2C_MasterRxCpltCallback             0x08023fc7   Thumb Code     2  stm32f4xx_hal_i2c.o(.text)
    HAL_I2C_Master_Receive_DMA               0x08024039   Thumb Code   230  stm32f4xx_hal_i2c.o(.text)
    HAL_I2C_SlaveTxCpltCallback              0x0802411f   Thumb Code     2  stm32f4xx_hal_i2c.o(.text)
    HAL_I2C_Slave_Transmit_DMA               0x080241a1   Thumb Code   260  stm32f4xx_hal_i2c.o(.text)
    HAL_I2C_SlaveRxCpltCallback              0x080242a5   Thumb Code     2  stm32f4xx_hal_i2c.o(.text)
    HAL_I2C_Slave_Receive_DMA                0x0802432d   Thumb Code   180  stm32f4xx_hal_i2c.o(.text)
    HAL_I2C_Mem_Write                        0x0802448b   Thumb Code   270  stm32f4xx_hal_i2c.o(.text)
    HAL_I2C_Mem_Read                         0x080246bd   Thumb Code   546  stm32f4xx_hal_i2c.o(.text)
    HAL_I2C_Mem_Write_IT                     0x080248df   Thumb Code   172  stm32f4xx_hal_i2c.o(.text)
    HAL_I2C_Mem_Read_IT                      0x0802498b   Thumb Code   284  stm32f4xx_hal_i2c.o(.text)
    HAL_I2C_MemTxCpltCallback                0x08024aa7   Thumb Code     2  stm32f4xx_hal_i2c.o(.text)
    HAL_I2C_Mem_Write_DMA                    0x08024b1d   Thumb Code   216  stm32f4xx_hal_i2c.o(.text)
    HAL_I2C_MemRxCpltCallback                0x08024bf5   Thumb Code     2  stm32f4xx_hal_i2c.o(.text)
    HAL_I2C_Mem_Read_DMA                     0x08024c67   Thumb Code   240  stm32f4xx_hal_i2c.o(.text)
    HAL_I2C_IsDeviceReady                    0x08024d57   Thumb Code   362  stm32f4xx_hal_i2c.o(.text)
    HAL_I2C_EV_IRQHandler                    0x08025313   Thumb Code   368  stm32f4xx_hal_i2c.o(.text)
    HAL_I2C_ER_IRQHandler                    0x080254f1   Thumb Code   248  stm32f4xx_hal_i2c.o(.text)
    HAL_I2C_GetState                         0x080255e9   Thumb Code     8  stm32f4xx_hal_i2c.o(.text)
    HAL_I2C_GetError                         0x080255f1   Thumb Code     8  stm32f4xx_hal_i2c.o(.text)
    HAL_NOR_MspInit                          0x080255f9   Thumb Code     2  stm32f4xx_hal_nor.o(.text)
    HAL_NOR_Init                             0x080255fb   Thumb Code    88  stm32f4xx_hal_nor.o(.text)
    HAL_NOR_MspDeInit                        0x08025653   Thumb Code     2  stm32f4xx_hal_nor.o(.text)
    HAL_NOR_DeInit                           0x08025655   Thumb Code    34  stm32f4xx_hal_nor.o(.text)
    HAL_NOR_MspWait                          0x08025677   Thumb Code     2  stm32f4xx_hal_nor.o(.text)
    HAL_NOR_Read_ID                          0x08025679   Thumb Code   132  stm32f4xx_hal_nor.o(.text)
    HAL_NOR_ReturnToReadMode                 0x080256fd   Thumb Code    62  stm32f4xx_hal_nor.o(.text)
    HAL_NOR_Read                             0x0802573b   Thumb Code    98  stm32f4xx_hal_nor.o(.text)
    HAL_NOR_Program                          0x0802579d   Thumb Code   106  stm32f4xx_hal_nor.o(.text)
    HAL_NOR_ReadBuffer                       0x08025807   Thumb Code   114  stm32f4xx_hal_nor.o(.text)
    HAL_NOR_ProgramBuffer                    0x08025879   Thumb Code   168  stm32f4xx_hal_nor.o(.text)
    HAL_NOR_Erase_Block                      0x08025921   Thumb Code    94  stm32f4xx_hal_nor.o(.text)
    HAL_NOR_Erase_Chip                       0x0802597f   Thumb Code    94  stm32f4xx_hal_nor.o(.text)
    HAL_NOR_Read_CFI                         0x080259dd   Thumb Code   110  stm32f4xx_hal_nor.o(.text)
    HAL_NOR_WriteOperation_Enable            0x08025a4b   Thumb Code    66  stm32f4xx_hal_nor.o(.text)
    HAL_NOR_WriteOperation_Disable           0x08025a8d   Thumb Code    60  stm32f4xx_hal_nor.o(.text)
    HAL_NOR_GetState                         0x08025ac9   Thumb Code     8  stm32f4xx_hal_nor.o(.text)
    HAL_NOR_GetStatus                        0x08025ad1   Thumb Code   124  stm32f4xx_hal_nor.o(.text)
    HAL_RCC_DeInit                           0x08025b4d   Thumb Code    96  stm32f4xx_hal_rcc.o(.text)
    HAL_RCC_OscConfig                        0x08025bad   Thumb Code   968  stm32f4xx_hal_rcc.o(.text)
    HAL_RCC_GetSysClockFreq                  0x08025f75   Thumb Code   184  stm32f4xx_hal_rcc.o(.text)
    HAL_RCC_GetHCLKFreq                      0x0802602d   Thumb Code    44  stm32f4xx_hal_rcc.o(.text)
    HAL_RCC_ClockConfig                      0x08026059   Thumb Code   624  stm32f4xx_hal_rcc.o(.text)
    HAL_RCC_MCOConfig                        0x080262c9   Thumb Code   188  stm32f4xx_hal_rcc.o(.text)
    HAL_RCC_EnableCSS                        0x08026385   Thumb Code     8  stm32f4xx_hal_rcc.o(.text)
    HAL_RCC_DisableCSS                       0x0802638d   Thumb Code     8  stm32f4xx_hal_rcc.o(.text)
    HAL_RCC_GetPCLK1Freq                     0x08026395   Thumb Code    36  stm32f4xx_hal_rcc.o(.text)
    HAL_RCC_GetPCLK2Freq                     0x080263b9   Thumb Code    36  stm32f4xx_hal_rcc.o(.text)
    HAL_RCC_GetOscConfig                     0x080263dd   Thumb Code   296  stm32f4xx_hal_rcc.o(.text)
    HAL_RCC_GetClockConfig                   0x08026505   Thumb Code    58  stm32f4xx_hal_rcc.o(.text)
    HAL_RCC_CCSCallback                      0x0802653f   Thumb Code     2  stm32f4xx_hal_rcc.o(.text)
    HAL_RCC_NMI_IRQHandler                   0x08026541   Thumb Code    30  stm32f4xx_hal_rcc.o(.text)
    HAL_SDRAM_MspInit                        0x08026571   Thumb Code     2  stm32f4xx_hal_sdram.o(.text)
    HAL_SDRAM_Init                           0x08026573   Thumb Code    58  stm32f4xx_hal_sdram.o(.text)
    HAL_SDRAM_MspDeInit                      0x080265ad   Thumb Code     2  stm32f4xx_hal_sdram.o(.text)
    HAL_SDRAM_DeInit                         0x080265af   Thumb Code    34  stm32f4xx_hal_sdram.o(.text)
    HAL_SDRAM_RefreshErrorCallback           0x080265d1   Thumb Code     2  stm32f4xx_hal_sdram.o(.text)
    HAL_SDRAM_IRQHandler                     0x080265d3   Thumb Code    34  stm32f4xx_hal_sdram.o(.text)
    HAL_SDRAM_DMA_XferCpltCallback           0x080265f5   Thumb Code     2  stm32f4xx_hal_sdram.o(.text)
    HAL_SDRAM_DMA_XferErrorCallback          0x080265f7   Thumb Code     2  stm32f4xx_hal_sdram.o(.text)
    HAL_SDRAM_Read_8b                        0x080265f9   Thumb Code    80  stm32f4xx_hal_sdram.o(.text)
    HAL_SDRAM_Write_8b                       0x08026649   Thumb Code    86  stm32f4xx_hal_sdram.o(.text)
    HAL_SDRAM_Read_16b                       0x0802669f   Thumb Code    80  stm32f4xx_hal_sdram.o(.text)
    HAL_SDRAM_Write_16b                      0x080266ef   Thumb Code    86  stm32f4xx_hal_sdram.o(.text)
    HAL_SDRAM_Read_32b                       0x08026745   Thumb Code    80  stm32f4xx_hal_sdram.o(.text)
    HAL_SDRAM_Write_32b                      0x08026795   Thumb Code    86  stm32f4xx_hal_sdram.o(.text)
    HAL_SDRAM_Read_DMA                       0x080267eb   Thumb Code    96  stm32f4xx_hal_sdram.o(.text)
    HAL_SDRAM_Write_DMA                      0x0802684b   Thumb Code   100  stm32f4xx_hal_sdram.o(.text)
    HAL_SDRAM_WriteProtection_Enable         0x080268af   Thumb Code    38  stm32f4xx_hal_sdram.o(.text)
    HAL_SDRAM_WriteProtection_Disable        0x080268d5   Thumb Code    38  stm32f4xx_hal_sdram.o(.text)
    HAL_SDRAM_SendCommand                    0x080268fb   Thumb Code    58  stm32f4xx_hal_sdram.o(.text)
    HAL_SDRAM_ProgramRefreshRate             0x08026935   Thumb Code    40  stm32f4xx_hal_sdram.o(.text)
    HAL_SDRAM_SetAutoRefreshNumber           0x0802695d   Thumb Code    40  stm32f4xx_hal_sdram.o(.text)
    HAL_SDRAM_GetModeStatus                  0x08026985   Thumb Code    14  stm32f4xx_hal_sdram.o(.text)
    HAL_SDRAM_GetState                       0x08026993   Thumb Code     8  stm32f4xx_hal_sdram.o(.text)
    TIM_Base_SetConfig                       0x080269a5   Thumb Code   184  stm32f4xx_hal_tim.o(.text)
    HAL_TIM_Base_MspInit                     0x08026a5d   Thumb Code     2  stm32f4xx_hal_tim.o(.text)
    HAL_TIM_Base_Init                        0x08026a5f   Thumb Code    46  stm32f4xx_hal_tim.o(.text)
    HAL_TIM_Base_MspDeInit                   0x08026a8d   Thumb Code     2  stm32f4xx_hal_tim.o(.text)
    HAL_TIM_Base_DeInit                      0x08026a8f   Thumb Code    70  stm32f4xx_hal_tim.o(.text)
    HAL_TIM_Base_Start                       0x08026ad5   Thumb Code    30  stm32f4xx_hal_tim.o(.text)
    HAL_TIM_Base_Stop                        0x08026af3   Thumb Code    56  stm32f4xx_hal_tim.o(.text)
    HAL_TIM_Base_Start_IT                    0x08026b2b   Thumb Code    30  stm32f4xx_hal_tim.o(.text)
    HAL_TIM_Base_Stop_IT                     0x08026b49   Thumb Code    56  stm32f4xx_hal_tim.o(.text)
    HAL_TIM_ErrorCallback                    0x08026b81   Thumb Code     2  stm32f4xx_hal_tim.o(.text)
    HAL_TIM_DMAError                         0x08026b83   Thumb Code    20  stm32f4xx_hal_tim.o(.text)
    HAL_TIM_PeriodElapsedCallback            0x08026b97   Thumb Code     2  stm32f4xx_hal_tim.o(.text)
    HAL_TIM_Base_Start_DMA                   0x08026bad   Thumb Code    98  stm32f4xx_hal_tim.o(.text)
    HAL_TIM_Base_Stop_DMA                    0x08026c0f   Thumb Code    62  stm32f4xx_hal_tim.o(.text)
    HAL_TIM_OC_MspInit                       0x08026c4d   Thumb Code     2  stm32f4xx_hal_tim.o(.text)
    HAL_TIM_OC_Init                          0x08026c4f   Thumb Code    46  stm32f4xx_hal_tim.o(.text)
    HAL_TIM_OC_MspDeInit                     0x08026c7d   Thumb Code     2  stm32f4xx_hal_tim.o(.text)
    HAL_TIM_OC_DeInit                        0x08026c7f   Thumb Code    70  stm32f4xx_hal_tim.o(.text)
    TIM_CCxChannelCmd                        0x08026cc5   Thumb Code    28  stm32f4xx_hal_tim.o(.text)
    HAL_TIM_OC_Start                         0x08026ce1   Thumb Code    68  stm32f4xx_hal_tim.o(.text)
    HAL_TIM_OC_Stop                          0x08026d25   Thumb Code   168  stm32f4xx_hal_tim.o(.text)
    HAL_TIM_OC_Start_IT                      0x08026dcd   Thumb Code   144  stm32f4xx_hal_tim.o(.text)
    HAL_TIM_OC_Stop_IT                       0x08026e5d   Thumb Code   196  stm32f4xx_hal_tim.o(.text)
    HAL_TIM_PWM_PulseFinishedCallback        0x08026f21   Thumb Code     2  stm32f4xx_hal_tim.o(.text)
    HAL_TIM_DMADelayPulseCplt                0x08026f23   Thumb Code    20  stm32f4xx_hal_tim.o(.text)
    HAL_TIM_OC_Start_DMA                     0x08026f37   Thumb Code   312  stm32f4xx_hal_tim.o(.text)
    HAL_TIM_OC_Stop_DMA                      0x0802706f   Thumb Code   202  stm32f4xx_hal_tim.o(.text)
    HAL_TIM_PWM_MspInit                      0x08027139   Thumb Code     2  stm32f4xx_hal_tim.o(.text)
    HAL_TIM_PWM_Init                         0x0802713b   Thumb Code    46  stm32f4xx_hal_tim.o(.text)
    HAL_TIM_PWM_MspDeInit                    0x08027169   Thumb Code     2  stm32f4xx_hal_tim.o(.text)
    HAL_TIM_PWM_DeInit                       0x0802716b   Thumb Code    70  stm32f4xx_hal_tim.o(.text)
    HAL_TIM_PWM_Start                        0x080271b1   Thumb Code    68  stm32f4xx_hal_tim.o(.text)
    HAL_TIM_PWM_Stop                         0x080271f5   Thumb Code   134  stm32f4xx_hal_tim.o(.text)
    HAL_TIM_PWM_Start_IT                     0x0802727b   Thumb Code   144  stm32f4xx_hal_tim.o(.text)
    HAL_TIM_PWM_Stop_IT                      0x0802730b   Thumb Code   196  stm32f4xx_hal_tim.o(.text)
    HAL_TIM_PWM_Start_DMA                    0x080273cf   Thumb Code   312  stm32f4xx_hal_tim.o(.text)
    HAL_TIM_PWM_Stop_DMA                     0x08027507   Thumb Code   202  stm32f4xx_hal_tim.o(.text)
    HAL_TIM_IC_MspInit                       0x080275d1   Thumb Code     2  stm32f4xx_hal_tim.o(.text)
    HAL_TIM_IC_Init                          0x080275d3   Thumb Code    46  stm32f4xx_hal_tim.o(.text)
    HAL_TIM_IC_MspDeInit                     0x08027601   Thumb Code     2  stm32f4xx_hal_tim.o(.text)
    HAL_TIM_IC_DeInit                        0x08027603   Thumb Code    70  stm32f4xx_hal_tim.o(.text)
    HAL_TIM_IC_Start                         0x08027649   Thumb Code    32  stm32f4xx_hal_tim.o(.text)
    HAL_TIM_IC_Stop                          0x08027669   Thumb Code    58  stm32f4xx_hal_tim.o(.text)
    HAL_TIM_IC_Start_IT                      0x080276a3   Thumb Code   116  stm32f4xx_hal_tim.o(.text)
    HAL_TIM_IC_Stop_IT                       0x08027717   Thumb Code   134  stm32f4xx_hal_tim.o(.text)
    HAL_TIM_IC_CaptureCallback               0x0802779d   Thumb Code     2  stm32f4xx_hal_tim.o(.text)
    HAL_TIM_DMACaptureCplt                   0x0802779f   Thumb Code    20  stm32f4xx_hal_tim.o(.text)
    HAL_TIM_IC_Start_DMA                     0x080277b3   Thumb Code   276  stm32f4xx_hal_tim.o(.text)
    HAL_TIM_IC_Stop_DMA                      0x080278c7   Thumb Code   140  stm32f4xx_hal_tim.o(.text)
    HAL_TIM_OnePulse_MspInit                 0x08027953   Thumb Code     2  stm32f4xx_hal_tim.o(.text)
    HAL_TIM_OnePulse_Init                    0x08027955   Thumb Code    70  stm32f4xx_hal_tim.o(.text)
    HAL_TIM_OnePulse_MspDeInit               0x0802799b   Thumb Code     2  stm32f4xx_hal_tim.o(.text)
    HAL_TIM_OnePulse_DeInit                  0x0802799d   Thumb Code    70  stm32f4xx_hal_tim.o(.text)
    HAL_TIM_OnePulse_Start                   0x080279e3   Thumb Code    66  stm32f4xx_hal_tim.o(.text)
    HAL_TIM_OnePulse_Stop                    0x08027a25   Thumb Code   130  stm32f4xx_hal_tim.o(.text)
    HAL_TIM_OnePulse_Start_IT                0x08027aa7   Thumb Code    90  stm32f4xx_hal_tim.o(.text)
    HAL_TIM_OnePulse_Stop_IT                 0x08027b01   Thumb Code   154  stm32f4xx_hal_tim.o(.text)
    HAL_TIM_Encoder_MspInit                  0x08027b9b   Thumb Code     2  stm32f4xx_hal_tim.o(.text)
    HAL_TIM_Encoder_Init                     0x08027b9d   Thumb Code   174  stm32f4xx_hal_tim.o(.text)
    HAL_TIM_Encoder_MspDeInit                0x08027c4b   Thumb Code     2  stm32f4xx_hal_tim.o(.text)
    HAL_TIM_Encoder_DeInit                   0x08027c4d   Thumb Code    70  stm32f4xx_hal_tim.o(.text)
    HAL_TIM_Encoder_Start                    0x08027c93   Thumb Code    78  stm32f4xx_hal_tim.o(.text)
    HAL_TIM_Encoder_Stop                     0x08027ce1   Thumb Code   104  stm32f4xx_hal_tim.o(.text)
    HAL_TIM_Encoder_Start_IT                 0x08027d49   Thumb Code   126  stm32f4xx_hal_tim.o(.text)
    HAL_TIM_Encoder_Stop_IT                  0x08027dc7   Thumb Code   162  stm32f4xx_hal_tim.o(.text)
    HAL_TIM_Encoder_Start_DMA                0x08027e69   Thumb Code   328  stm32f4xx_hal_tim.o(.text)
    HAL_TIM_Encoder_Stop_DMA                 0x08027fb1   Thumb Code   152  stm32f4xx_hal_tim.o(.text)
    HAL_TIM_TriggerCallback                  0x08028049   Thumb Code     2  stm32f4xx_hal_tim.o(.text)
    HAL_TIM_OC_DelayElapsedCallback          0x0802804b   Thumb Code     2  stm32f4xx_hal_tim.o(.text)
    HAL_TIM_IRQHandler                       0x0802804d   Thumb Code   488  stm32f4xx_hal_tim.o(.text)
    TIM_OC2_SetConfig                        0x08028319   Thumb Code   112  stm32f4xx_hal_tim.o(.text)
    HAL_TIM_OC_ConfigChannel                 0x080283ef   Thumb Code   116  stm32f4xx_hal_tim.o(.text)
    TIM_TI1_SetConfig                        0x080284fd   Thumb Code   114  stm32f4xx_hal_tim.o(.text)
    HAL_TIM_IC_ConfigChannel                 0x0802856f   Thumb Code   224  stm32f4xx_hal_tim.o(.text)
    HAL_TIM_PWM_ConfigChannel                0x0802864f   Thumb Code   294  stm32f4xx_hal_tim.o(.text)
    HAL_TIM_OnePulse_ConfigChannel           0x08028775   Thumb Code   286  stm32f4xx_hal_tim.o(.text)
    HAL_TIM_DMABurst_WriteStart              0x080288a7   Thumb Code   366  stm32f4xx_hal_tim.o(.text)
    HAL_TIM_DMABurst_WriteStop               0x08028a15   Thumb Code    16  stm32f4xx_hal_tim.o(.text)
    HAL_TIM_DMABurst_ReadStart               0x08028a25   Thumb Code   366  stm32f4xx_hal_tim.o(.text)
    HAL_TIM_DMABurst_ReadStop                0x08028b93   Thumb Code    16  stm32f4xx_hal_tim.o(.text)
    HAL_TIM_GenerateEvent                    0x08028ba3   Thumb Code    54  stm32f4xx_hal_tim.o(.text)
    HAL_TIM_ConfigOCrefClear                 0x08028bf1   Thumb Code   226  stm32f4xx_hal_tim.o(.text)
    HAL_TIM_ConfigClockSource                0x08028d57   Thumb Code   306  stm32f4xx_hal_tim.o(.text)
    HAL_TIM_ConfigTI1Input                   0x08028e89   Thumb Code    24  stm32f4xx_hal_tim.o(.text)
    HAL_TIM_SlaveConfigSynchronization       0x08028ea1   Thumb Code   208  stm32f4xx_hal_tim.o(.text)
    HAL_TIM_ReadCapturedValue                0x08028f71   Thumb Code    84  stm32f4xx_hal_tim.o(.text)
    HAL_TIM_Base_GetState                    0x08028fc5   Thumb Code     8  stm32f4xx_hal_tim.o(.text)
    HAL_TIM_OC_GetState                      0x08028fcd   Thumb Code     8  stm32f4xx_hal_tim.o(.text)
    HAL_TIM_PWM_GetState                     0x08028fd5   Thumb Code     8  stm32f4xx_hal_tim.o(.text)
    HAL_TIM_IC_GetState                      0x08028fdd   Thumb Code     8  stm32f4xx_hal_tim.o(.text)
    HAL_TIM_OnePulse_GetState                0x08028fe5   Thumb Code     8  stm32f4xx_hal_tim.o(.text)
    HAL_TIM_Encoder_GetState                 0x08028fed   Thumb Code     8  stm32f4xx_hal_tim.o(.text)
    HAL_TIMEx_HallSensor_MspInit             0x08028ff5   Thumb Code     2  stm32f4xx_hal_tim_ex.o(.text)
    HAL_TIMEx_HallSensor_Init                0x08028ff7   Thumb Code   196  stm32f4xx_hal_tim_ex.o(.text)
    HAL_TIMEx_HallSensor_MspDeInit           0x080290bb   Thumb Code     2  stm32f4xx_hal_tim_ex.o(.text)
    HAL_TIMEx_HallSensor_DeInit              0x080290bd   Thumb Code    70  stm32f4xx_hal_tim_ex.o(.text)
    HAL_TIMEx_HallSensor_Start               0x08029103   Thumb Code    30  stm32f4xx_hal_tim_ex.o(.text)
    HAL_TIMEx_HallSensor_Stop                0x08029121   Thumb Code    56  stm32f4xx_hal_tim_ex.o(.text)
    HAL_TIMEx_HallSensor_Start_IT            0x08029159   Thumb Code    42  stm32f4xx_hal_tim_ex.o(.text)
    HAL_TIMEx_HallSensor_Stop_IT             0x08029183   Thumb Code    68  stm32f4xx_hal_tim_ex.o(.text)
    HAL_TIMEx_HallSensor_Start_DMA           0x080291c7   Thumb Code   106  stm32f4xx_hal_tim_ex.o(.text)
    HAL_TIMEx_HallSensor_Stop_DMA            0x08029231   Thumb Code    68  stm32f4xx_hal_tim_ex.o(.text)
    HAL_TIMEx_OCN_Start                      0x08029291   Thumb Code    44  stm32f4xx_hal_tim_ex.o(.text)
    HAL_TIMEx_OCN_Stop                       0x080292bd   Thumb Code    96  stm32f4xx_hal_tim_ex.o(.text)
    HAL_TIMEx_OCN_Start_IT                   0x0802931d   Thumb Code   120  stm32f4xx_hal_tim_ex.o(.text)
    HAL_TIMEx_OCN_Stop_IT                    0x08029395   Thumb Code   172  stm32f4xx_hal_tim_ex.o(.text)
    HAL_TIMEx_OCN_Start_DMA                  0x08029441   Thumb Code   272  stm32f4xx_hal_tim_ex.o(.text)
    HAL_TIMEx_OCN_Stop_DMA                   0x08029551   Thumb Code   192  stm32f4xx_hal_tim_ex.o(.text)
    HAL_TIMEx_PWMN_Start                     0x08029611   Thumb Code    44  stm32f4xx_hal_tim_ex.o(.text)
    HAL_TIMEx_PWMN_Stop                      0x0802963d   Thumb Code    96  stm32f4xx_hal_tim_ex.o(.text)
    HAL_TIMEx_PWMN_Start_IT                  0x0802969d   Thumb Code   132  stm32f4xx_hal_tim_ex.o(.text)
    HAL_TIMEx_PWMN_Stop_IT                   0x08029721   Thumb Code   184  stm32f4xx_hal_tim_ex.o(.text)
    HAL_TIMEx_PWMN_Start_DMA                 0x080297d9   Thumb Code   272  stm32f4xx_hal_tim_ex.o(.text)
    HAL_TIMEx_PWMN_Stop_DMA                  0x080298e9   Thumb Code   178  stm32f4xx_hal_tim_ex.o(.text)
    HAL_TIMEx_OnePulseN_Start                0x0802999b   Thumb Code    32  stm32f4xx_hal_tim_ex.o(.text)
    HAL_TIMEx_OnePulseN_Stop                 0x080299bb   Thumb Code    96  stm32f4xx_hal_tim_ex.o(.text)
    HAL_TIMEx_OnePulseN_Start_IT             0x08029a1b   Thumb Code    56  stm32f4xx_hal_tim_ex.o(.text)
    HAL_TIMEx_OnePulseN_Stop_IT              0x08029a53   Thumb Code   120  stm32f4xx_hal_tim_ex.o(.text)
    HAL_TIMEx_ConfigCommutationEvent         0x08029acb   Thumb Code   110  stm32f4xx_hal_tim_ex.o(.text)
    HAL_TIMEx_ConfigCommutationEvent_IT      0x08029b39   Thumb Code   122  stm32f4xx_hal_tim_ex.o(.text)
    HAL_TIMEx_CommutationCallback            0x08029bb3   Thumb Code     2  stm32f4xx_hal_tim_ex.o(.text)
    HAL_TIMEx_DMACommutationCplt             0x08029bb5   Thumb Code    20  stm32f4xx_hal_tim_ex.o(.text)
    HAL_TIMEx_ConfigCommutationEvent_DMA     0x08029bc9   Thumb Code   146  stm32f4xx_hal_tim_ex.o(.text)
    HAL_TIMEx_MasterConfigSynchronization    0x08029c5b   Thumb Code    98  stm32f4xx_hal_tim_ex.o(.text)
    HAL_TIMEx_ConfigBreakDeadTime            0x08029cbd   Thumb Code    80  stm32f4xx_hal_tim_ex.o(.text)
    HAL_TIMEx_RemapConfig                    0x08029d0d   Thumb Code    48  stm32f4xx_hal_tim_ex.o(.text)
    HAL_TIMEx_BreakCallback                  0x08029d3d   Thumb Code     2  stm32f4xx_hal_tim_ex.o(.text)
    HAL_TIMEx_HallSensor_GetState            0x08029d3f   Thumb Code     8  stm32f4xx_hal_tim_ex.o(.text)
    HAL_UART_MspInit                         0x08029f6d   Thumb Code     2  stm32f4xx_hal_uart.o(.text)
    HAL_UART_Init                            0x08029f6f   Thumb Code   106  stm32f4xx_hal_uart.o(.text)
    HAL_HalfDuplex_Init                      0x08029fd9   Thumb Code   104  stm32f4xx_hal_uart.o(.text)
    HAL_LIN_Init                             0x0802a041   Thumb Code   128  stm32f4xx_hal_uart.o(.text)
    HAL_MultiProcessor_Init                  0x0802a0c1   Thumb Code   140  stm32f4xx_hal_uart.o(.text)
    HAL_UART_MspDeInit                       0x0802a14d   Thumb Code     2  stm32f4xx_hal_uart.o(.text)
    HAL_UART_DeInit                          0x0802a14f   Thumb Code    44  stm32f4xx_hal_uart.o(.text)
    HAL_UART_Transmit                        0x0802a275   Thumb Code   242  stm32f4xx_hal_uart.o(.text)
    HAL_UART_Receive                         0x0802a367   Thumb Code   250  stm32f4xx_hal_uart.o(.text)
    HAL_UART_Transmit_IT                     0x0802a461   Thumb Code   136  stm32f4xx_hal_uart.o(.text)
    HAL_UART_Receive_IT                      0x0802a4e9   Thumb Code   136  stm32f4xx_hal_uart.o(.text)
    HAL_UART_ErrorCallback                   0x0802a571   Thumb Code     2  stm32f4xx_hal_uart.o(.text)
    HAL_UART_TxHalfCpltCallback              0x0802a599   Thumb Code     2  stm32f4xx_hal_uart.o(.text)
    HAL_UART_TxCpltCallback                  0x0802a5a9   Thumb Code     2  stm32f4xx_hal_uart.o(.text)
    HAL_UART_Transmit_DMA                    0x0802a5fd   Thumb Code   164  stm32f4xx_hal_uart.o(.text)
    HAL_UART_RxHalfCpltCallback              0x0802a6a1   Thumb Code     2  stm32f4xx_hal_uart.o(.text)
    HAL_UART_RxCpltCallback                  0x0802a6b1   Thumb Code     2  stm32f4xx_hal_uart.o(.text)
    HAL_UART_Receive_DMA                     0x0802a6e7   Thumb Code   148  stm32f4xx_hal_uart.o(.text)
    HAL_UART_DMAPause                        0x0802a77b   Thumb Code   114  stm32f4xx_hal_uart.o(.text)
    HAL_UART_DMAResume                       0x0802a7ed   Thumb Code   136  stm32f4xx_hal_uart.o(.text)
    HAL_UART_DMAStop                         0x0802a875   Thumb Code   102  stm32f4xx_hal_uart.o(.text)
    HAL_UART_IRQHandler                      0x0802ac5b   Thumb Code   306  stm32f4xx_hal_uart.o(.text)
    HAL_LIN_SendBreak                        0x0802ad8d   Thumb Code    62  stm32f4xx_hal_uart.o(.text)
    HAL_MultiProcessor_EnterMuteMode         0x0802adcb   Thumb Code   118  stm32f4xx_hal_uart.o(.text)
    HAL_MultiProcessor_ExitMuteMode          0x0802ae41   Thumb Code    62  stm32f4xx_hal_uart.o(.text)
    HAL_HalfDuplex_EnableTransmitter         0x0802ae7f   Thumb Code    68  stm32f4xx_hal_uart.o(.text)
    HAL_HalfDuplex_EnableReceiver            0x0802aec3   Thumb Code    68  stm32f4xx_hal_uart.o(.text)
    HAL_UART_GetState                        0x0802af07   Thumb Code     8  stm32f4xx_hal_uart.o(.text)
    HAL_UART_GetError                        0x0802af0f   Thumb Code     8  stm32f4xx_hal_uart.o(.text)
    setUartConfig                            0x0802af17   Thumb Code    12  stm32f4xx_hal_uart.o(.text)
    Get_command_gen                          0x0802af23   Thumb Code     6  stm32f4xx_hal_uart.o(.text)
    Set_comd                                 0x0802af29   Thumb Code     6  stm32f4xx_hal_uart.o(.text)
    getComd                                  0x0802af2f   Thumb Code     6  stm32f4xx_hal_uart.o(.text)
    FMC_NORSRAM_Init                         0x0802af3d   Thumb Code   112  stm32f4xx_ll_fmc.o(.text)
    FMC_NORSRAM_DeInit                       0x0802afad   Thumb Code    56  stm32f4xx_ll_fmc.o(.text)
    FMC_NORSRAM_Timing_Init                  0x0802afe5   Thumb Code    84  stm32f4xx_ll_fmc.o(.text)
    FMC_NORSRAM_Extended_Timing_Init         0x0802b039   Thumb Code    68  stm32f4xx_ll_fmc.o(.text)
    FMC_NORSRAM_WriteOperation_Enable        0x0802b07d   Thumb Code    18  stm32f4xx_ll_fmc.o(.text)
    FMC_NORSRAM_WriteOperation_Disable       0x0802b08f   Thumb Code    18  stm32f4xx_ll_fmc.o(.text)
    FMC_NAND_Init                            0x0802b0a1   Thumb Code    52  stm32f4xx_ll_fmc.o(.text)
    FMC_NAND_CommonSpace_Timing_Init         0x0802b0d5   Thumb Code    40  stm32f4xx_ll_fmc.o(.text)
    FMC_NAND_AttributeSpace_Timing_Init      0x0802b0fd   Thumb Code    40  stm32f4xx_ll_fmc.o(.text)
    FMC_NAND_DeInit                          0x0802b125   Thumb Code    66  stm32f4xx_ll_fmc.o(.text)
    FMC_NAND_ECC_Enable                      0x0802b167   Thumb Code    28  stm32f4xx_ll_fmc.o(.text)
    FMC_NAND_ECC_Disable                     0x0802b183   Thumb Code    28  stm32f4xx_ll_fmc.o(.text)
    FMC_NAND_GetECC                          0x0802b19f   Thumb Code    84  stm32f4xx_ll_fmc.o(.text)
    FMC_PCCARD_Init                          0x0802b1f3   Thumb Code    26  stm32f4xx_ll_fmc.o(.text)
    FMC_PCCARD_CommonSpace_Timing_Init       0x0802b20d   Thumb Code    28  stm32f4xx_ll_fmc.o(.text)
    FMC_PCCARD_AttributeSpace_Timing_Init    0x0802b229   Thumb Code    28  stm32f4xx_ll_fmc.o(.text)
    FMC_PCCARD_IOSpace_Timing_Init           0x0802b245   Thumb Code    28  stm32f4xx_ll_fmc.o(.text)
    FMC_PCCARD_DeInit                        0x0802b261   Thumb Code    32  stm32f4xx_ll_fmc.o(.text)
    FMC_SDRAM_Init                           0x0802b281   Thumb Code    98  stm32f4xx_ll_fmc.o(.text)
    FMC_SDRAM_Timing_Init                    0x0802b2e3   Thumb Code   126  stm32f4xx_ll_fmc.o(.text)
    FMC_SDRAM_DeInit                         0x0802b361   Thumb Code    32  stm32f4xx_ll_fmc.o(.text)
    FMC_SDRAM_WriteProtection_Enable         0x0802b381   Thumb Code    18  stm32f4xx_ll_fmc.o(.text)
    FMC_SDRAM_WriteProtection_Disable        0x0802b393   Thumb Code    18  stm32f4xx_ll_fmc.o(.text)
    FMC_SDRAM_SendCommand                    0x0802b3a5   Thumb Code    80  stm32f4xx_ll_fmc.o(.text)
    FMC_SDRAM_ProgramRefreshRate             0x0802b3f5   Thumb Code    14  stm32f4xx_ll_fmc.o(.text)
    FMC_SDRAM_SetAutoRefreshNumber           0x0802b403   Thumb Code    14  stm32f4xx_ll_fmc.o(.text)
    FMC_SDRAM_GetModeStatus                  0x0802b411   Thumb Code    24  stm32f4xx_ll_fmc.o(.text)
    HAL_IWDG_MspInit                         0x0802b429   Thumb Code     2  stm32f4xx_hal_iwdg.o(.text)
    HAL_IWDG_Init                            0x0802b42b   Thumb Code    78  stm32f4xx_hal_iwdg.o(.text)
    HAL_IWDG_Start                           0x0802b479   Thumb Code    68  stm32f4xx_hal_iwdg.o(.text)
    HAL_IWDG_Refresh                         0x0802b4bd   Thumb Code    66  stm32f4xx_hal_iwdg.o(.text)
    HAL_IWDG_GetState                        0x0802b4ff   Thumb Code     6  stm32f4xx_hal_iwdg.o(.text)
    snmp_asn1_dec_type                       0x0802b505   Thumb Code    48  asn1_dec.o(.text)
    snmp_asn1_dec_length                     0x0802b535   Thumb Code   328  asn1_dec.o(.text)
    snmp_asn1_dec_u32t                       0x0802b67d   Thumb Code   186  asn1_dec.o(.text)
    snmp_asn1_dec_s32t                       0x0802b737   Thumb Code   218  asn1_dec.o(.text)
    snmp_asn1_dec_oid                        0x0802b811   Thumb Code   360  asn1_dec.o(.text)
    snmp_asn1_dec_raw                        0x0802b979   Thumb Code   116  asn1_dec.o(.text)
    snmp_asn1_enc_length_cnt                 0x0802b9ed   Thumb Code    26  asn1_enc.o(.text)
    snmp_asn1_enc_u32t_cnt                   0x0802ba07   Thumb Code    52  asn1_enc.o(.text)
    snmp_asn1_enc_s32t_cnt                   0x0802ba3b   Thumb Code    46  asn1_enc.o(.text)
    snmp_asn1_enc_oid_cnt                    0x0802ba69   Thumb Code    56  asn1_enc.o(.text)
    snmp_asn1_enc_type                       0x0802baa1   Thumb Code    46  asn1_enc.o(.text)
    snmp_asn1_enc_length                     0x0802bacf   Thumb Code   148  asn1_enc.o(.text)
    snmp_asn1_enc_u32t                       0x0802bb63   Thumb Code   138  asn1_enc.o(.text)
    snmp_asn1_enc_s32t                       0x0802bbed   Thumb Code    96  asn1_enc.o(.text)
    snmp_asn1_enc_oid                        0x0802bc4d   Thumb Code   278  asn1_enc.o(.text)
    snmp_asn1_enc_raw                        0x0802bd63   Thumb Code    98  asn1_enc.o(.text)
    lwip_htons                               0x0802bdc5   Thumb Code    12  def.o(.text)
    lwip_ntohs                               0x0802bdd1   Thumb Code    12  def.o(.text)
    lwip_htonl                               0x0802bddd   Thumb Code    26  def.o(.text)
    lwip_ntohl                               0x0802bdf7   Thumb Code    12  def.o(.text)
    lwip_strerr                              0x0802be03   Thumb Code   102  def.o(.text)
    igmp_init                                0x0802bfa1   Thumb Code    18  igmp.o(.text)
    igmp_dump_group_list                     0x0802bfb3   Thumb Code    30  igmp.o(.text)
    igmp_lookfor_group                       0x0802bfd1   Thumb Code    40  igmp.o(.text)
    igmp_start                               0x0802c04d   Thumb Code    66  igmp.o(.text)
    igmp_stop                                0x0802c08f   Thumb Code    90  igmp.o(.text)
    igmp_report_groups                       0x0802c131   Thumb Code    36  igmp.o(.text)
    igmp_input                               0x0802c199   Thumb Code   520  igmp.o(.text)
    igmp_joingroup                           0x0802c49b   Thumb Code   258  igmp.o(.text)
    igmp_leavegroup                          0x0802c59d   Thumb Code   262  igmp.o(.text)
    igmp_tmr                                 0x0802c6d3   Thumb Code    38  igmp.o(.text)
    lwip_init                                0x0802c86d   Thumb Code    40  init.o(.text)
    snmp_ifindextonetif                      0x0802c911   Thumb Code    28  mib_structs.o(.text)
    snmp_netiftoifindex                      0x0802c92d   Thumb Code    30  mib_structs.o(.text)
    snmp_oidtoip                             0x0802c94b   Thumb Code    24  mib_structs.o(.text)
    snmp_iptooid                             0x0802c963   Thumb Code    18  mib_structs.o(.text)
    snmp_mib_ln_alloc                        0x0802c975   Thumb Code    28  mib_structs.o(.text)
    snmp_mib_ln_free                         0x0802c991   Thumb Code    14  mib_structs.o(.text)
    snmp_mib_lrn_alloc                       0x0802c99f   Thumb Code    46  mib_structs.o(.text)
    snmp_mib_lrn_free                        0x0802c9cd   Thumb Code    14  mib_structs.o(.text)
    snmp_mib_node_insert                     0x0802c9db   Thumb Code   268  mib_structs.o(.text)
    snmp_mib_node_find                       0x0802cae7   Thumb Code   104  mib_structs.o(.text)
    snmp_mib_node_delete                     0x0802cb4f   Thumb Code   150  mib_structs.o(.text)
    snmp_search_tree                         0x0802cbe5   Thumb Code   584  mib_structs.o(.text)
    snmp_expand_tree                         0x0802ce71   Thumb Code  1332  mib_structs.o(.text)
    snmp_iso_prefix_tst                      0x0802d3a5   Thumb Code    36  mib_structs.o(.text)
    snmp_iso_prefix_expand                   0x0802d3c9   Thumb Code    78  mib_structs.o(.text)
    objectidncpy                             0x0802d439   Thumb Code    20  mib2.o(.text)
    snmp_set_sysdesr                         0x0802d44d   Thumb Code    12  mib2.o(.text)
    snmp_get_sysobjid_ptr                    0x0802d459   Thumb Code     6  mib2.o(.text)
    snmp_set_sysobjid                        0x0802d45f   Thumb Code    16  mib2.o(.text)
    snmp_inc_sysuptime                       0x0802d46f   Thumb Code    12  mib2.o(.text)
    snmp_add_sysuptime                       0x0802d47b   Thumb Code    12  mib2.o(.text)
    snmp_get_sysuptime                       0x0802d487   Thumb Code    26  mib2.o(.text)
    snmp_set_syscontact                      0x0802d4a1   Thumb Code    12  mib2.o(.text)
    snmp_set_sysname                         0x0802d4ad   Thumb Code    12  mib2.o(.text)
    snmp_set_syslocation                     0x0802d4b9   Thumb Code    12  mib2.o(.text)
    snmp_add_ifinoctets                      0x0802d4c5   Thumb Code     8  mib2.o(.text)
    snmp_inc_ifinucastpkts                   0x0802d4cd   Thumb Code     8  mib2.o(.text)
    snmp_inc_ifinnucastpkts                  0x0802d4d5   Thumb Code     8  mib2.o(.text)
    snmp_inc_ifindiscards                    0x0802d4dd   Thumb Code     8  mib2.o(.text)
    snmp_add_ifoutoctets                     0x0802d4e5   Thumb Code     8  mib2.o(.text)
    snmp_inc_ifoutucastpkts                  0x0802d4ed   Thumb Code     8  mib2.o(.text)
    snmp_inc_ifoutnucastpkts                 0x0802d4f5   Thumb Code     8  mib2.o(.text)
    snmp_inc_ifoutdiscards                   0x0802d4fd   Thumb Code     8  mib2.o(.text)
    snmp_inc_iflist                          0x0802d505   Thumb Code    28  mib2.o(.text)
    snmp_dec_iflist                          0x0802d521   Thumb Code    24  mib2.o(.text)
    noleafs_set_value                        0x0802d539   Thumb Code     2  mib2.o(.text)
    noleafs_set_test                         0x0802d53b   Thumb Code     6  mib2.o(.text)
    snmp_insert_arpidx_tree                  0x0802d77f   Thumb Code   370  mib2.o(.text)
    snmp_delete_arpidx_tree                  0x0802d8f1   Thumb Code   252  mib2.o(.text)
    snmp_inc_ipinreceives                    0x0802d9ed   Thumb Code    12  mib2.o(.text)
    snmp_inc_ipinhdrerrors                   0x0802d9f9   Thumb Code    12  mib2.o(.text)
    snmp_inc_ipinaddrerrors                  0x0802da05   Thumb Code    12  mib2.o(.text)
    snmp_inc_ipforwdatagrams                 0x0802da11   Thumb Code    12  mib2.o(.text)
    snmp_inc_ipinunknownprotos               0x0802da1d   Thumb Code    12  mib2.o(.text)
    snmp_inc_ipindiscards                    0x0802da29   Thumb Code    12  mib2.o(.text)
    snmp_inc_ipindelivers                    0x0802da35   Thumb Code    12  mib2.o(.text)
    snmp_inc_ipoutrequests                   0x0802da41   Thumb Code    12  mib2.o(.text)
    snmp_inc_ipoutdiscards                   0x0802da4d   Thumb Code    12  mib2.o(.text)
    snmp_inc_ipoutnoroutes                   0x0802da59   Thumb Code    12  mib2.o(.text)
    snmp_inc_ipreasmreqds                    0x0802da65   Thumb Code    12  mib2.o(.text)
    snmp_inc_ipreasmoks                      0x0802da71   Thumb Code    12  mib2.o(.text)
    snmp_inc_ipreasmfails                    0x0802da7d   Thumb Code    12  mib2.o(.text)
    snmp_inc_ipfragoks                       0x0802da89   Thumb Code    12  mib2.o(.text)
    snmp_inc_ipfragfails                     0x0802da95   Thumb Code    12  mib2.o(.text)
    snmp_inc_ipfragcreates                   0x0802daa1   Thumb Code    12  mib2.o(.text)
    snmp_inc_iproutingdiscards               0x0802daad   Thumb Code    12  mib2.o(.text)
    snmp_insert_ipaddridx_tree               0x0802dbf7   Thumb Code   154  mib2.o(.text)
    snmp_delete_ipaddridx_tree               0x0802dc91   Thumb Code   368  mib2.o(.text)
    snmp_insert_iprteidx_tree                0x0802e00b   Thumb Code   168  mib2.o(.text)
    snmp_delete_iprteidx_tree                0x0802e0b3   Thumb Code   302  mib2.o(.text)
    snmp_inc_icmpinmsgs                      0x0802e1e1   Thumb Code    12  mib2.o(.text)
    snmp_inc_icmpinerrors                    0x0802e1ed   Thumb Code    12  mib2.o(.text)
    snmp_inc_icmpindestunreachs              0x0802e1f9   Thumb Code    12  mib2.o(.text)
    snmp_inc_icmpintimeexcds                 0x0802e205   Thumb Code    12  mib2.o(.text)
    snmp_inc_icmpinparmprobs                 0x0802e211   Thumb Code    12  mib2.o(.text)
    snmp_inc_icmpinsrcquenchs                0x0802e21d   Thumb Code    12  mib2.o(.text)
    snmp_inc_icmpinredirects                 0x0802e229   Thumb Code    12  mib2.o(.text)
    snmp_inc_icmpinechos                     0x0802e235   Thumb Code    12  mib2.o(.text)
    snmp_inc_icmpinechoreps                  0x0802e241   Thumb Code    12  mib2.o(.text)
    snmp_inc_icmpintimestamps                0x0802e24d   Thumb Code    12  mib2.o(.text)
    snmp_inc_icmpintimestampreps             0x0802e259   Thumb Code    12  mib2.o(.text)
    snmp_inc_icmpinaddrmasks                 0x0802e265   Thumb Code    12  mib2.o(.text)
    snmp_inc_icmpinaddrmaskreps              0x0802e271   Thumb Code    12  mib2.o(.text)
    snmp_inc_icmpoutmsgs                     0x0802e27d   Thumb Code    12  mib2.o(.text)
    snmp_inc_icmpouterrors                   0x0802e289   Thumb Code    12  mib2.o(.text)
    snmp_inc_icmpoutdestunreachs             0x0802e295   Thumb Code    12  mib2.o(.text)
    snmp_inc_icmpouttimeexcds                0x0802e2a1   Thumb Code    12  mib2.o(.text)
    snmp_inc_icmpoutparmprobs                0x0802e2ad   Thumb Code    12  mib2.o(.text)
    snmp_inc_icmpoutsrcquenchs               0x0802e2b9   Thumb Code    12  mib2.o(.text)
    snmp_inc_icmpoutredirects                0x0802e2c5   Thumb Code    12  mib2.o(.text)
    snmp_inc_icmpoutechos                    0x0802e2d1   Thumb Code    12  mib2.o(.text)
    snmp_inc_icmpoutechoreps                 0x0802e2dd   Thumb Code    12  mib2.o(.text)
    snmp_inc_icmpouttimestamps               0x0802e2e9   Thumb Code    12  mib2.o(.text)
    snmp_inc_icmpouttimestampreps            0x0802e2f5   Thumb Code    12  mib2.o(.text)
    snmp_inc_icmpoutaddrmasks                0x0802e301   Thumb Code    12  mib2.o(.text)
    snmp_inc_icmpoutaddrmaskreps             0x0802e30d   Thumb Code    12  mib2.o(.text)
    snmp_inc_tcpactiveopens                  0x0802e319   Thumb Code    12  mib2.o(.text)
    snmp_inc_tcppassiveopens                 0x0802e325   Thumb Code    12  mib2.o(.text)
    snmp_inc_tcpattemptfails                 0x0802e331   Thumb Code    12  mib2.o(.text)
    snmp_inc_tcpestabresets                  0x0802e33d   Thumb Code    12  mib2.o(.text)
    snmp_inc_tcpinsegs                       0x0802e349   Thumb Code    12  mib2.o(.text)
    snmp_inc_tcpoutsegs                      0x0802e355   Thumb Code    12  mib2.o(.text)
    snmp_inc_tcpretranssegs                  0x0802e361   Thumb Code    12  mib2.o(.text)
    snmp_inc_tcpinerrs                       0x0802e36d   Thumb Code    12  mib2.o(.text)
    snmp_inc_tcpoutrsts                      0x0802e379   Thumb Code    12  mib2.o(.text)
    snmp_inc_udpindatagrams                  0x0802e385   Thumb Code    12  mib2.o(.text)
    snmp_inc_udpnoports                      0x0802e391   Thumb Code    12  mib2.o(.text)
    snmp_inc_udpinerrors                     0x0802e39d   Thumb Code    12  mib2.o(.text)
    snmp_inc_udpoutdatagrams                 0x0802e3a9   Thumb Code    12  mib2.o(.text)
    snmp_insert_udpidx_tree                  0x0802e4c5   Thumb Code   154  mib2.o(.text)
    snmp_delete_udpidx_tree                  0x0802e55f   Thumb Code   512  mib2.o(.text)
    snmp_inc_snmpinpkts                      0x0802e75f   Thumb Code    12  mib2.o(.text)
    snmp_inc_snmpoutpkts                     0x0802e76b   Thumb Code    12  mib2.o(.text)
    snmp_inc_snmpinbadversions               0x0802e777   Thumb Code    12  mib2.o(.text)
    snmp_inc_snmpinbadcommunitynames         0x0802e783   Thumb Code    12  mib2.o(.text)
    snmp_inc_snmpinbadcommunityuses          0x0802e78f   Thumb Code    12  mib2.o(.text)
    snmp_inc_snmpinasnparseerrs              0x0802e79b   Thumb Code    12  mib2.o(.text)
    snmp_inc_snmpintoobigs                   0x0802e7a7   Thumb Code    12  mib2.o(.text)
    snmp_inc_snmpinnosuchnames               0x0802e7b3   Thumb Code    12  mib2.o(.text)
    snmp_inc_snmpinbadvalues                 0x0802e7bf   Thumb Code    12  mib2.o(.text)
    snmp_inc_snmpinreadonlys                 0x0802e7cb   Thumb Code    12  mib2.o(.text)
    snmp_inc_snmpingenerrs                   0x0802e7d7   Thumb Code    12  mib2.o(.text)
    snmp_add_snmpintotalreqvars              0x0802e7e3   Thumb Code    12  mib2.o(.text)
    snmp_add_snmpintotalsetvars              0x0802e7ef   Thumb Code    12  mib2.o(.text)
    snmp_inc_snmpingetrequests               0x0802e7fb   Thumb Code    12  mib2.o(.text)
    snmp_inc_snmpingetnexts                  0x0802e807   Thumb Code    12  mib2.o(.text)
    snmp_inc_snmpinsetrequests               0x0802e813   Thumb Code    12  mib2.o(.text)
    snmp_inc_snmpingetresponses              0x0802e81f   Thumb Code    12  mib2.o(.text)
    snmp_inc_snmpintraps                     0x0802e82b   Thumb Code    12  mib2.o(.text)
    snmp_inc_snmpouttoobigs                  0x0802e837   Thumb Code    12  mib2.o(.text)
    snmp_inc_snmpoutnosuchnames              0x0802e843   Thumb Code    12  mib2.o(.text)
    snmp_inc_snmpoutbadvalues                0x0802e84f   Thumb Code    12  mib2.o(.text)
    snmp_inc_snmpoutgenerrs                  0x0802e85b   Thumb Code    12  mib2.o(.text)
    snmp_inc_snmpoutgetrequests              0x0802e867   Thumb Code    12  mib2.o(.text)
    snmp_inc_snmpoutgetnexts                 0x0802e873   Thumb Code    12  mib2.o(.text)
    snmp_inc_snmpoutsetrequests              0x0802e87f   Thumb Code    12  mib2.o(.text)
    snmp_inc_snmpoutgetresponses             0x0802e88b   Thumb Code    12  mib2.o(.text)
    snmp_inc_snmpouttraps                    0x0802e897   Thumb Code    12  mib2.o(.text)
    snmp_get_snmpgrpid_ptr                   0x0802e8a3   Thumb Code     6  mib2.o(.text)
    snmp_set_snmpenableauthentraps           0x0802e8a9   Thumb Code     8  mib2.o(.text)
    snmp_get_snmpenableauthentraps           0x0802e8b1   Thumb Code    10  mib2.o(.text)
    noleafs_get_object_def                   0x0802e8bb   Thumb Code     6  mib2.o(.text)
    noleafs_get_value                        0x0802e8c1   Thumb Code     2  mib2.o(.text)
    snmp_varbind_free                        0x0802fa91   Thumb Code    38  msg_in.o(.text)
    snmp_varbind_list_free                   0x0802fab7   Thumb Code    32  msg_in.o(.text)
    snmp_varbind_tail_add                    0x0802ff09   Thumb Code    28  msg_in.o(.text)
    snmp_varbind_alloc                       0x08030363   Thumb Code   230  msg_in.o(.text)
    snmp_msg_event                           0x080306eb   Thumb Code    68  msg_in.o(.text)
    snmp_init                                0x08030f6b   Thumb Code    82  msg_in.o(.text)
    snmp_varbind_tail_remove                 0x08030fbd   Thumb Code    32  msg_in.o(.text)
    snmp_trap_dst_enable                     0x08030ff5   Thumb Code    14  msg_out.o(.text)
    snmp_trap_dst_ip_set                     0x08031003   Thumb Code    20  msg_out.o(.text)
    snmp_send_response                       0x080314a3   Thumb Code   232  msg_out.o(.text)
    snmp_send_trap                           0x08031841   Thumb Code   226  msg_out.o(.text)
    snmp_coldstart_trap                      0x08031923   Thumb Code    30  msg_out.o(.text)
    snmp_authfail_trap                       0x08031941   Thumb Code    44  msg_out.o(.text)
    stats_init                               0x0803197d   Thumb Code    54  stats.o(.text)
    sys_now                                  0x080319c1   Thumb Code     6  sys.o(.text)
    tcp_init                                 0x080319cd   Thumb Code     2  tcp.o(.text)
    tcp_seg_free                             0x080319cf   Thumb Code    26  tcp.o(.text)
    tcp_segs_free                            0x080319e9   Thumb Code    24  tcp.o(.text)
    tcp_pcb_purge                            0x08031a01   Thumb Code    98  tcp.o(.text)
    tcp_slowtmr                              0x08031a63   Thumb Code  1462  tcp.o(.text)
    tcp_pcb_remove                           0x08032019   Thumb Code   202  tcp.o(.text)
    tcp_close                                0x080322c5   Thumb Code    28  tcp.o(.text)
    tcp_update_rcv_ann_wnd                   0x080322e1   Thumb Code   110  tcp.o(.text)
    tcp_recved                               0x0803234f   Thumb Code   362  tcp.o(.text)
    tcp_recv_null                            0x080324b9   Thumb Code    46  tcp.o(.text)
    tcp_process_refused_data                 0x080324e7   Thumb Code   156  tcp.o(.text)
    tcp_fasttmr                              0x08032583   Thumb Code   112  tcp.o(.text)
    tcp_tmr                                  0x080325f3   Thumb Code    28  tcp.o(.text)
    tcp_shutdown                             0x0803260f   Thumb Code   104  tcp.o(.text)
    tcp_abandon                              0x08032677   Thumb Code   176  tcp.o(.text)
    tcp_abort                                0x08032727   Thumb Code    14  tcp.o(.text)
    tcp_bind                                 0x08032795   Thumb Code   412  tcp.o(.text)
    tcp_listen_with_backlog                  0x08032939   Thumb Code   266  tcp.o(.text)
    tcp_eff_send_mss                         0x08032a43   Thumb Code    46  tcp.o(.text)
    tcp_next_iss                             0x08032a71   Thumb Code    20  tcp.o(.text)
    tcp_connect                              0x08032a85   Thumb Code   436  tcp.o(.text)
    tcp_setprio                              0x08032c39   Thumb Code     4  tcp.o(.text)
    tcp_alloc                                0x08032cc3   Thumb Code   378  tcp.o(.text)
    tcp_new                                  0x08032e3d   Thumb Code    10  tcp.o(.text)
    tcp_arg                                  0x08032e47   Thumb Code     4  tcp.o(.text)
    tcp_recv                                 0x08032e4b   Thumb Code    46  tcp.o(.text)
    tcp_sent                                 0x08032e79   Thumb Code    46  tcp.o(.text)
    tcp_err                                  0x08032ea7   Thumb Code    46  tcp.o(.text)
    tcp_accept                               0x08032ed5   Thumb Code     4  tcp.o(.text)
    tcp_poll                                 0x08032ed9   Thumb Code    50  tcp.o(.text)
    tcp_debug_state_str                      0x08032f0b   Thumb Code    10  tcp.o(.text)
    tcp_input                                0x08034211   Thumb Code  1836  tcp_in.o(.text)
    tcp_enqueue_flags                        0x08034af1   Thumb Code   460  tcp_out.o(.text)
    tcp_send_fin                             0x08034cbd   Thumb Code    74  tcp_out.o(.text)
    tcp_write                                0x08034f85   Thumb Code  1822  tcp_out.o(.text)
    tcp_send_empty_ack                       0x080356a3   Thumb Code   104  tcp_out.o(.text)
    tcp_output                               0x0803595b   Thumb Code   512  tcp_out.o(.text)
    tcp_rst                                  0x08035b5b   Thumb Code   200  tcp_out.o(.text)
    tcp_rexmit_rto                           0x08035c23   Thumb Code    70  tcp_out.o(.text)
    tcp_rexmit                               0x08035c69   Thumb Code   180  tcp_out.o(.text)
    tcp_rexmit_fast                          0x08035d1d   Thumb Code   122  tcp_out.o(.text)
    tcp_keepalive                            0x08035d97   Thumb Code   116  tcp_out.o(.text)
    tcp_zero_window_probe                    0x08035e0b   Thumb Code   214  tcp_out.o(.text)
    sys_timeout                              0x08035ee5   Thumb Code   178  timers.o(.text)
    tcp_timer_needed                         0x08035fbf   Thumb Code    38  timers.o(.text)
    sys_timeouts_init                        0x08036031   Thumb Code    46  timers.o(.text)
    sys_untimeout                            0x0803605f   Thumb Code    90  timers.o(.text)
    sys_check_timeouts                       0x080360b9   Thumb Code    92  timers.o(.text)
    sys_restart_timeouts                     0x08036115   Thumb Code    12  timers.o(.text)
    udp_init                                 0x080361cd   Thumb Code     2  udp.o(.text)
    udp_input                                0x0803621f   Thumb Code   674  udp.o(.text)
    udp_bind                                 0x080364c1   Thumb Code   196  udp.o(.text)
    udp_sendto_if                            0x08036585   Thumb Code   506  udp.o(.text)
    udp_sendto                               0x0803677f   Thumb Code    88  udp.o(.text)
    udp_send                                 0x080367d7   Thumb Code    20  udp.o(.text)
    udp_connect                              0x080367eb   Thumb Code    98  udp.o(.text)
    udp_disconnect                           0x0803684d   Thumb Code    16  udp.o(.text)
    udp_recv                                 0x0803685d   Thumb Code     6  udp.o(.text)
    udp_remove                               0x08036863   Thumb Code    66  udp.o(.text)
    udp_new                                  0x080368a5   Thumb Code    28  udp.o(.text)
    etharp_tmr                               0x08036987   Thumb Code   148  etharp.o(.text)
    etharp_add_static_entry                  0x08036eb3   Thumb Code    40  etharp.o(.text)
    etharp_remove_static_entry               0x08036edb   Thumb Code    58  etharp.o(.text)
    etharp_cleanup_netif                     0x08036f15   Thumb Code    52  etharp.o(.text)
    etharp_find_addr                         0x08036f49   Thumb Code   114  etharp.o(.text)
    etharp_request                           0x0803732f   Thumb Code    40  etharp.o(.text)
    etharp_query                             0x080373e9   Thumb Code   508  etharp.o(.text)
    etharp_output                            0x080375e5   Thumb Code   640  etharp.o(.text)
    ethernet_input                           0x08037865   Thumb Code   260  etharp.o(.text)
    ethernetif_input                         0x08037b13   Thumb Code    36  ethernetif.o(.text)
    ethernetif_init                          0x08037b37   Thumb Code   134  ethernetif.o(.text)
    icmp_input                               0x08037c41   Thumb Code   694  icmp.o(.text)
    icmp_dest_unreach                        0x08037fb1   Thumb Code    18  icmp.o(.text)
    icmp_time_exceeded                       0x08037fc3   Thumb Code    18  icmp.o(.text)
    inet_chksum_pseudo                       0x0803819b   Thumb Code   170  inet_chksum.o(.text)
    inet_chksum_pseudo_partial               0x08038245   Thumb Code   224  inet_chksum.o(.text)
    inet_chksum                              0x08038325   Thumb Code    20  inet_chksum.o(.text)
    inet_chksum_pbuf                         0x08038339   Thumb Code    86  inet_chksum.o(.text)
    ip_route                                 0x080383e9   Thumb Code   100  ip.o(.text)
    ip_input                                 0x0803844d   Thumb Code   710  ip.o(.text)
    ip_output_if_opt                         0x08038713   Thumb Code   616  ip.o(.text)
    ip_output_if                             0x0803897b   Thumb Code    52  ip.o(.text)
    ip_output                                0x080389af   Thumb Code   116  ip.o(.text)
    ip4_addr_isbroadcast                     0x08038a75   Thumb Code    78  ip_addr.o(.text)
    ip4_addr_netmask_valid                   0x08038ac3   Thumb Code    52  ip_addr.o(.text)
    ipaddr_aton                              0x08038af7   Thumb Code   370  ip_addr.o(.text)
    ipaddr_addr                              0x08038c69   Thumb Code    24  ip_addr.o(.text)
    ipaddr_ntoa_r                            0x08038c81   Thumb Code   168  ip_addr.o(.text)
    ipaddr_ntoa                              0x08038d29   Thumb Code    16  ip_addr.o(.text)
    ip_reass_tmr                             0x08038efb   Thumb Code    56  ip_frag.o(.text)
    ip_reass                                 0x0803934b   Thumb Code   482  ip_frag.o(.text)
    ip_frag                                  0x080395bf   Thumb Code   656  ip_frag.o(.text)
    mem_init                                 0x08039943   Thumb Code    78  mem.o(.text)
    mem_free                                 0x08039991   Thumb Code   206  mem.o(.text)
    mem_trim                                 0x08039a5f   Thumb Code   364  mem.o(.text)
    mem_malloc                               0x08039bcb   Thumb Code   818  mem.o(.text)
    mem_calloc                               0x08039efd   Thumb Code    32  mem.o(.text)
    memp_init                                0x08039fa1   Thumb Code   134  memp.o(.text)
    memp_malloc                              0x0803a027   Thumb Code   182  memp.o(.text)
    memp_free                                0x0803a0dd   Thumb Code    58  memp.o(.text)
    netif_init                               0x0803a191   Thumb Code     2  netif.o(.text)
    netif_set_gw                             0x0803a193   Thumb Code    16  netif.o(.text)
    netif_set_netmask                        0x0803a1a3   Thumb Code    38  netif.o(.text)
    netif_set_ipaddr                         0x0803a1c9   Thumb Code   158  netif.o(.text)
    netif_set_addr                           0x0803a267   Thumb Code    40  netif.o(.text)
    netif_add                                0x0803a28f   Thumb Code   192  netif.o(.text)
    netif_set_default                        0x0803a34f   Thumb Code    34  netif.o(.text)
    netif_set_down                           0x0803a371   Thumb Code    52  netif.o(.text)
    netif_remove                             0x0803a3a5   Thumb Code   120  netif.o(.text)
    netif_find                               0x0803a41d   Thumb Code    72  netif.o(.text)
    netif_set_up                             0x0803a465   Thumb Code    80  netif.o(.text)
    netif_set_link_up                        0x0803a4b5   Thumb Code    70  netif.o(.text)
    netif_set_link_down                      0x0803a4fb   Thumb Code    24  netif.o(.text)
    pbuf_free                                0x0803a589   Thumb Code   274  pbuf.o(.text)
    pbuf_alloc                               0x0803a69b   Thumb Code   586  pbuf.o(.text)
    pbuf_alloced_custom                      0x0803a8e5   Thumb Code   524  pbuf.o(.text)
    pbuf_realloc                             0x0803aaf1   Thumb Code   288  pbuf.o(.text)
    pbuf_header                              0x0803ac11   Thumb Code   226  pbuf.o(.text)
    pbuf_clen                                0x0803acf3   Thumb Code    18  pbuf.o(.text)
    pbuf_ref                                 0x0803ad05   Thumb Code    10  pbuf.o(.text)
    pbuf_cat                                 0x0803ad0f   Thumb Code   150  pbuf.o(.text)
    pbuf_chain                               0x0803ada5   Thumb Code    26  pbuf.o(.text)
    pbuf_dechain                             0x0803adbf   Thumb Code   140  pbuf.o(.text)
    pbuf_copy                                0x0803ae4b   Thumb Code   780  pbuf.o(.text)
    pbuf_copy_partial                        0x0803b157   Thumb Code   198  pbuf.o(.text)
    pbuf_take                                0x0803b21d   Thumb Code   226  pbuf.o(.text)
    pbuf_coalesce                            0x0803b2ff   Thumb Code    84  pbuf.o(.text)
    pbuf_get_at                              0x0803b353   Thumb Code    46  pbuf.o(.text)
    pbuf_memcmp                              0x0803b381   Thumb Code    96  pbuf.o(.text)
    pbuf_memfind                             0x0803b3e1   Thumb Code    76  pbuf.o(.text)
    pbuf_strstr                              0x0803b42d   Thumb Code   368  pbuf.o(.text)
    raw_input                                0x0803b59d   Thumb Code   102  raw.o(.text)
    raw_bind                                 0x0803b603   Thumb Code    16  raw.o(.text)
    raw_connect                              0x0803b613   Thumb Code    16  raw.o(.text)
    raw_recv                                 0x0803b623   Thumb Code     6  raw.o(.text)
    raw_sendto                               0x0803b629   Thumb Code   194  raw.o(.text)
    raw_send                                 0x0803b6eb   Thumb Code    18  raw.o(.text)
    raw_remove                               0x0803b6fd   Thumb Code    60  raw.o(.text)
    raw_new                                  0x0803b739   Thumb Code    46  raw.o(.text)
    initBoardInfo                            0x0803b7e1   Thumb Code   544  board_info.o(.text)
    recoverSerialParameterConfig             0x0803ba01   Thumb Code    96  board_info.o(.text)
    recoverVlanPortsConfig                   0x0803ba61   Thumb Code     8  board_info.o(.text)
    recoverVlanConfig                        0x0803ba69   Thumb Code    94  board_info.o(.text)
    recoverPortsConfig                       0x0803bac7   Thumb Code    28  board_info.o(.text)
    recoverMacConfig                         0x0803bae3   Thumb Code   142  board_info.o(.text)
    recoverConfigEntries                     0x0803bb71   Thumb Code   248  board_info.o(.text)
    initSerialInfo                           0x0803bc69   Thumb Code    50  board_info.o(.text)
    readFlashToBoard                         0x0803bc9b   Thumb Code    12  board_info.o(.text)
    calculateChecksum                        0x0803bca7   Thumb Code    32  board_info.o(.text)
    fs_open                                  0x0803bceb   Thumb Code   286  fs.o(.text)
    fs_close                                 0x0803be09   Thumb Code     2  fs.o(.text)
    fs_bytes_left                            0x0803be0b   Thumb Code    10  fs.o(.text)
    web_main                                 0x0803c5e9   Thumb Code   396  web_main.o(.text)
    setHostAddress                           0x0803c92d   Thumb Code   100  ip_config.o(.text)
    getFormatAddress                         0x0803c991   Thumb Code    66  ip_config.o(.text)
    modifyIPConfig                           0x0803c9d3   Thumb Code   432  ip_config.o(.text)
    doCRC16                                  0x0803cc55   Thumb Code    40  crc16.o(.text)
    httpd_post_finished                      0x0803d9a1   Thumb Code    38  httpd.o(.text)
    httpd_post_receive_data                  0x0803ddd5   Thumb Code    60  httpd.o(.text)
    httpd_post_begin                         0x0803de49   Thumb Code   122  httpd.o(.text)
    http_set_ssi_handler                     0x0803e6b5   Thumb Code   118  httpd.o(.text)
    httpd_init                               0x0803e72b   Thumb Code   108  httpd.o(.text)
    getFileName                              0x0803e8c9   Thumb Code   130  httpd-cgi.o(.text)
    generateDataFile                         0x0803e94b   Thumb Code  1700  httpd-cgi.o(.text)
    processPostRequest                       0x0803efef   Thumb Code   372  httpd-cgi.o(.text)
    initPorts                                0x0803f3c5   Thumb Code    22  ports.o(.text)
    initPreBandWidth                         0x0803f3db   Thumb Code    20  ports.o(.text)
    updatePreBandWidth                       0x0803f3ef   Thumb Code   122  ports.o(.text)
    clearPreBandWidth                        0x0803f469   Thumb Code    30  ports.o(.text)
    generatePortsData                        0x0803f487   Thumb Code   362  ports.o(.text)
    generateCountData                        0x0803f5f1   Thumb Code   818  ports.o(.text)
    getImgLocation                           0x0803f923   Thumb Code   184  ports.o(.text)
    generatePreviewData                      0x0803f9db   Thumb Code   390  ports.o(.text)
    modifyPortsConfig                        0x0803fb61   Thumb Code  1290  ports.o(.text)
    modifySwitchChipPortsConfig              0x0804006b   Thumb Code   196  ports.o(.text)
    getPortDetailData                        0x0804012f   Thumb Code   528  ports.o(.text)
    generateBandWidth                        0x0804033f   Thumb Code   548  ports.o(.text)
    freeMemory                               0x080405b1   Thumb Code    14  request.o(.text)
    getParameter                             0x080405bf   Thumb Code   238  request.o(.text)
    getHttpHeaderParameter                   0x080406ad   Thumb Code    90  request.o(.text)
    getHttpFormStartLocation                 0x08040707   Thumb Code    36  request.o(.text)
    timer_init                               0x08040769   Thumb Code    26  timer.o(.text)
    timer_set_interval                       0x08040783   Thumb Code    18  timer.o(.text)
    timer_testclr_evt                        0x08040795   Thumb Code    40  timer.o(.text)
    sigalarm_handler                         0x080407bd   Thumb Code    50  timer.o(.text)
    recoverFactorySet                        0x080407f5   Thumb Code   152  system_maintain.o(.text)
    generateConfigSaveResult                 0x0804088d   Thumb Code    52  system_maintain.o(.text)
    deviceRestart                            0x080408c1   Thumb Code    40  system_maintain.o(.text)
    getDeviceRestartStatus                   0x080408e9   Thumb Code    20  system_maintain.o(.text)
    saveAllConfigToFalsh                     0x080408fd   Thumb Code    56  system_maintain.o(.text)
    setRestartDeviceFlag                     0x08040935   Thumb Code     8  system_maintain.o(.text)
    processLogout                            0x0804093d   Thumb Code    88  system_maintain.o(.text)
    saveSystemImage                          0x08040995   Thumb Code   384  system_maintain.o(.text)
    generateSystemUpdateStatus               0x08040b15   Thumb Code   102  system_maintain.o(.text)
    gbk_conv_hanzi                           0x08040d31   Thumb Code   218  gbk_conv_hanzi.o(.text)
    getTimeWday                              0x08040e15   Thumb Code    98  system_info.o(.text)
    calcSystemTime                           0x08040e77   Thumb Code   120  system_info.o(.text)
    generateIPConfigData                     0x08040eef   Thumb Code   198  system_info.o(.text)
    generateSystemCompileDate                0x08040fb5   Thumb Code   198  system_info.o(.text)
    calcSystemRunTime                        0x0804107b   Thumb Code    70  system_info.o(.text)
    generateSystemStatusInfo                 0x080410c1   Thumb Code   214  system_info.o(.text)
    initSystemTime                           0x08041197   Thumb Code    44  system_info.o(.text)
    mofidyMacLinkId                          0x08041329   Thumb Code    20  mac_link.o(.text)
    getMacString                             0x0804133d   Thumb Code    58  mac_link.o(.text)
    isExistNode                              0x08041377   Thumb Code   196  mac_link.o(.text)
    addMacLink                               0x0804143b   Thumb Code   178  mac_link.o(.text)
    isFindVlanIdArray                        0x080414ed   Thumb Code    42  mac_link.o(.text)
    initRoot                                 0x08041517   Thumb Code   314  mac_link.o(.text)
    deleteDymMacEntry                        0x08041651   Thumb Code    86  mac_link.o(.text)
    deleteMacLinkByVid                       0x080416a7   Thumb Code    90  mac_link.o(.text)
    getMacAddrNum                            0x08041701   Thumb Code     6  mac_link.o(.text)
    setMacAddrNum                            0x08041707   Thumb Code     6  mac_link.o(.text)
    emptyMacLink                             0x0804170d   Thumb Code   296  mac_link.o(.text)
    printMacLink                             0x08041835   Thumb Code    36  mac_link.o(.text)
    getRandomChar                            0x0804187d   Thumb Code    48  mac_table.o(.text)
    compareMacAddr                           0x080418ad   Thumb Code    16  mac_table.o(.text)
    getDyanMacTable                          0x080418bd   Thumb Code   308  mac_table.o(.text)
    getPrePageDynamicMac                     0x080419f1   Thumb Code   338  mac_table.o(.text)
    concatVectorString                       0x08041b91   Thumb Code    74  mac.o(.text)
    getPortsVectorArray                      0x08041bdb   Thumb Code    38  mac.o(.text)
    generateMacData                          0x08041c01   Thumb Code   290  mac.o(.text)
    deleteBoardMacAddress                    0x08041d23   Thumb Code   258  mac.o(.text)
    modifyBoardMacAddress                    0x08041e25   Thumb Code    94  mac.o(.text)
    addBoardMacAddress                       0x08041e83   Thumb Code   136  mac.o(.text)
    getDivideMacAddress                      0x08041f0b   Thumb Code   236  mac.o(.text)
    modifyMacData                            0x08041ff7   Thumb Code   986  mac.o(.text)
    printfMacAddress                         0x080423d1   Thumb Code   492  mac.o(.text)
    addTestDataToLink                        0x080425d1   Thumb Code   144  vlan.o(.text)
    initFirstVlan                            0x08042661   Thumb Code   134  vlan.o(.text)
    initVlanPorts                            0x080426e7   Thumb Code    22  vlan.o(.text)
    concatVlanPortsTagString                 0x080426fd   Thumb Code    46  vlan.o(.text)
    generateVlanStatus                       0x0804272b   Thumb Code   164  vlan.o(.text)
    generateVlanData                         0x080427cf   Thumb Code   230  vlan.o(.text)
    addBoardVlanMember                       0x080428b5   Thumb Code   114  vlan.o(.text)
    isPortsTagChange                         0x08042927   Thumb Code   482  vlan.o(.text)
    deleteBoardVlanMember                    0x08042b09   Thumb Code   200  vlan.o(.text)
    modifyVlanData                           0x08042bd1   Thumb Code  1030  vlan.o(.text)
    generateVlanPortsStatus                  0x08042fd7   Thumb Code   128  vlan.o(.text)
    modifySwitchVlanPorts                    0x08043057   Thumb Code   102  vlan.o(.text)
    modifyVlanPortsStatus                    0x080430bd   Thumb Code  1502  vlan.o(.text)
    generateVlanPreviewStatus                0x0804369b   Thumb Code   118  vlan.o(.text)
    mofidyVlanLinkId                         0x08043785   Thumb Code    20  vlan_link.o(.text)
    addVlanLinkNode                          0x08043799   Thumb Code    72  vlan_link.o(.text)
    deleteVlanLinkNodeById                   0x080437e1   Thumb Code    88  vlan_link.o(.text)
    isExistVlan                              0x08043839   Thumb Code    46  vlan_link.o(.text)
    emptyVlanLink                            0x08043867   Thumb Code    50  vlan_link.o(.text)
    checkLogin                               0x0804389d   Thumb Code   184  user.o(.text)
    NTP_Init                                 0x080439ff   Thumb Code    50  ntp_client.o(.text)
    get_ntp_time                             0x08043a31   Thumb Code   210  ntp_client.o(.text)
    send_packet                              0x08043b03   Thumb Code   112  ntp_client.o(.text)
    generateSendData                         0x08043bdd   Thumb Code     8  ntp_client.o(.text)
    connectNTPServer                         0x08043be5   Thumb Code   136  ntp_client.o(.text)
    cJSON_GetErrorPtr                        0x08043de5   Thumb Code     6  cjson.o(.text)
    cJSON_InitHooks                          0x08043e5f   Thumb Code    48  cjson.o(.text)
    cJSON_Delete                             0x08043ea9   Thumb Code    82  cjson.o(.text)
    cJSON_ParseWithOpts                      0x08044b3f   Thumb Code    96  cjson.o(.text)
    cJSON_Parse                              0x08044b9f   Thumb Code    16  cjson.o(.text)
    cJSON_Print                              0x08045353   Thumb Code    18  cjson.o(.text)
    cJSON_PrintUnformatted                   0x08045365   Thumb Code    18  cjson.o(.text)
    cJSON_PrintBuffered                      0x08045377   Thumb Code    38  cjson.o(.text)
    cJSON_GetArraySize                       0x0804539d   Thumb Code    18  cjson.o(.text)
    cJSON_GetArrayItem                       0x080453af   Thumb Code    18  cjson.o(.text)
    cJSON_GetObjectItem                      0x080453c1   Thumb Code    30  cjson.o(.text)
    cJSON_AddItemToArray                     0x08045415   Thumb Code    42  cjson.o(.text)
    cJSON_AddItemToObject                    0x0804543f   Thumb Code    44  cjson.o(.text)
    cJSON_AddItemToObjectCS                  0x0804546b   Thumb Code    54  cjson.o(.text)
    cJSON_AddItemReferenceToArray            0x080454a1   Thumb Code    24  cjson.o(.text)
    cJSON_AddItemReferenceToObject           0x080454b9   Thumb Code    32  cjson.o(.text)
    cJSON_DetachItemFromArray                0x080454d9   Thumb Code    66  cjson.o(.text)
    cJSON_DeleteItemFromArray                0x0804551b   Thumb Code    22  cjson.o(.text)
    cJSON_DetachItemFromObject               0x08045531   Thumb Code    50  cjson.o(.text)
    cJSON_DeleteItemFromObject               0x08045563   Thumb Code    22  cjson.o(.text)
    cJSON_InsertItemInArray                  0x08045579   Thumb Code    64  cjson.o(.text)
    cJSON_ReplaceItemInArray                 0x080455b9   Thumb Code    76  cjson.o(.text)
    cJSON_ReplaceItemInObject                0x08045605   Thumb Code    62  cjson.o(.text)
    cJSON_CreateNull                         0x08045643   Thumb Code    18  cjson.o(.text)
    cJSON_CreateTrue                         0x08045655   Thumb Code    18  cjson.o(.text)
    cJSON_CreateFalse                        0x08045667   Thumb Code    18  cjson.o(.text)
    cJSON_CreateBool                         0x08045679   Thumb Code    26  cjson.o(.text)
    cJSON_CreateNumber                       0x08045693   Thumb Code    48  cjson.o(.text)
    cJSON_CreateUint8Number                  0x080456c3   Thumb Code    36  cjson.o(.text)
    cJSON_CreateString                       0x080456e7   Thumb Code    28  cjson.o(.text)
    cJSON_CreateArray                        0x08045703   Thumb Code    18  cjson.o(.text)
    cJSON_CreateObject                       0x08045715   Thumb Code    18  cjson.o(.text)
    cJSON_CreateUint8IntArray                0x08045727   Thumb Code    70  cjson.o(.text)
    cJSON_CreateIntArray                     0x0804576d   Thumb Code    86  cjson.o(.text)
    cJSON_CreateFloatArray                   0x080457c3   Thumb Code    96  cjson.o(.text)
    cJSON_CreateDoubleArray                  0x08045823   Thumb Code    74  cjson.o(.text)
    cJSON_CreateStringArray                  0x0804586d   Thumb Code    70  cjson.o(.text)
    cJSON_Duplicate                          0x080458b3   Thumb Code   172  cjson.o(.text)
    cJSON_Minify                             0x0804595f   Thumb Code   186  cjson.o(.text)
    generateBoardContent                     0x08045a19   Thumb Code    28  jsonutility.o(.text)
    deleteBoardContent                       0x08045a35   Thumb Code    54  jsonutility.o(.text)
    parseJSONConetnt                         0x08045a6b   Thumb Code  1576  jsonutility.o(.text)
    generateConfigJSON                       0x08046093   Thumb Code  1950  jsonutility.o(.text)
    getUploadFileName                        0x0804685d   Thumb Code    84  upload_file.o(.text)
    getUploadFileContent                     0x080468b1   Thumb Code   116  upload_file.o(.text)
    get_nextval                              0x08046975   Thumb Code    84  findsubstring.o(.text)
    findSubstring                            0x080469c9   Thumb Code   110  findsubstring.o(.text)
    initStringHashTable                      0x08046a39   Thumb Code    22  stringhashtable.o(.text)
    getStringBKDRHash                        0x08046a4f   Thumb Code    30  stringhashtable.o(.text)
    addDataToStringHashTable                 0x08046a6d   Thumb Code    56  stringhashtable.o(.text)
    putStringHashValue                       0x08046aa5   Thumb Code   136  stringhashtable.o(.text)
    getStringHashValue                       0x08046b2d   Thumb Code    52  stringhashtable.o(.text)
    deleteStringHashValue                    0x08046b61   Thumb Code    96  stringhashtable.o(.text)
    integerLength                            0x08046c11   Thumb Code    22  utility.o(.text)
    addLogNode                               0x08046c29   Thumb Code    40  loginfo.o(.text)
    deleteLogNode                            0x08046c51   Thumb Code    34  loginfo.o(.text)
    emptyLogSystem                           0x08046c73   Thumb Code    46  loginfo.o(.text)
    freeLogSystemMemory                      0x08046ca1   Thumb Code    52  loginfo.o(.text)
    addLogEntry                              0x08046d21   Thumb Code   228  logutility.o(.text)
    deleteAllLogInfo                         0x08046e05   Thumb Code    10  logutility.o(.text)
    printSystemLog                           0x08046e0f   Thumb Code     2  logutility.o(.text)
    formatSystemTime                         0x08046e11   Thumb Code    48  logutility.o(.text)
    modifySystemLogTime                      0x08046e41   Thumb Code    74  logutility.o(.text)
    updateSystemLogTime                      0x08046e8b   Thumb Code    28  logutility.o(.text)
    getSystemLogEntry                        0x08046ea7   Thumb Code   320  logutility.o(.text)
    getPreSystemLogEntry                     0x08046fe7   Thumb Code   512  logutility.o(.text)
    addSessionNode                           0x080471f1   Thumb Code    40  session.o(.text)
    getSessionKey                            0x08047219   Thumb Code    66  session.o(.text)
    putSession                               0x0804725b   Thumb Code   134  session.o(.text)
    getSession                               0x080472e1   Thumb Code    58  session.o(.text)
    deleteSession                            0x0804731b   Thumb Code    18  session.o(.text)
    deleteSessionNode                        0x0804732d   Thumb Code    92  session.o(.text)
    isSessionTimeout                         0x08047389   Thumb Code    68  session.o(.text)
    updateSessionTime                        0x080473cd   Thumb Code    56  session.o(.text)
    initQueue                                0x08047419   Thumb Code     8  serialqueue.o(.text)
    addQueueNode                             0x08047421   Thumb Code    24  serialqueue.o(.text)
    getQueueData                             0x08047439   Thumb Code   130  serialqueue.o(.text)
    removeAllQueueNode                       0x080474bb   Thumb Code    60  serialqueue.o(.text)
    initAllQueueArray                        0x0804751d   Thumb Code   130  serialutility.o(.text)
    addDataToServerQueue                     0x0804759f   Thumb Code   272  serialutility.o(.text)
    addDataToClientQueue                     0x080476af   Thumb Code   314  serialutility.o(.text)
    getServerSerialData                      0x080477e9   Thumb Code   134  serialutility.o(.text)
    getClientSerialData                      0x0804786f   Thumb Code   436  serialutility.o(.text)
    getSerialConfig                          0x08047a23   Thumb Code   318  serialutility.o(.text)
    isSerialListenPort                       0x08047b61   Thumb Code    32  serialutility.o(.text)
    modifyRemoteConfig                       0x08047bcf   Thumb Code   290  serialutility.o(.text)
    deleteSerialRemoteEntry                  0x08047cf1   Thumb Code    70  serialutility.o(.text)
    modifyLocalSerialConfig                  0x08047d37   Thumb Code   966  serialutility.o(.text)
    modifySerialConfig                       0x080480fd   Thumb Code  1092  serialutility.o(.text)
    isExistRemoteConfig                      0x08048541   Thumb Code   114  serialutility.o(.text)
    readClientQueueToBuf                     0x080485b3   Thumb Code    94  serialutility.o(.text)
    checkLocalSerialTransmit                 0x08048611   Thumb Code    80  serialutility.o(.text)
    transmitLocalSerial                      0x08048661   Thumb Code   172  serialutility.o(.text)
    initSerialClient                         0x0804873d   Thumb Code    42  serialclient.o(.text)
    serialPoll                               0x080487bb   Thumb Code     4  serialclient.o(.text)
    generateSerialClientSendData             0x080487bf   Thumb Code    76  serialclient.o(.text)
    processSerialClientConnection            0x0804880b   Thumb Code   170  serialclient.o(.text)
    dataAcknowaged                           0x080488b5   Thumb Code   142  serialclient.o(.text)
    recvRemotePacket                         0x08048943   Thumb Code   170  serialclient.o(.text)
    serialClientConnect                      0x08048a5f   Thumb Code   504  serialclient.o(.text)
    senddata                                 0x08048cbf   Thumb Code   140  serialclientudp.o(.text)
    serialClientUdpConnect                   0x08048d4b   Thumb Code   132  serialclientudp.o(.text)
    handleSerialClientUdpOutput              0x08048dcf   Thumb Code    16  serialclientudp.o(.text)
    processSerialClientUdpConnection         0x08048ddf   Thumb Code    54  serialclientudp.o(.text)
    deleteSerialServerListen                 0x08048ff3   Thumb Code    54  serialserver.o(.text)
    addSerialServerListen                    0x08049029   Thumb Code   108  serialserver.o(.text)
    initDefaultSerialPort                    0x08049095   Thumb Code    52  serialserver.o(.text)
    serialServerRecv                         0x0804921b   Thumb Code   166  serialserverudp.o(.text)
    addUdpSerialListenPort                   0x080492c1   Thumb Code    88  serialserverudp.o(.text)
    unlistenUdpSerialPort                    0x08049319   Thumb Code    42  serialserverudp.o(.text)
    __rt_ctype_table                         0x080493a1   Thumb Code     4  ctype_o.o(.text)
    isspace                                  0x080493a9   Thumb Code    18  isspace_o.o(.text)
    tolower                                  0x080493bb   Thumb Code    12  tolower.o(.text)
    rand                                     0x080493c9   Thumb Code    20  rand.o(.text)
    srand                                    0x080493dd   Thumb Code     6  rand.o(.text)
    localtime                                0x080493ed   Thumb Code   124  localtime.o(.text)
    __aeabi_memcpy                           0x08049471   Thumb Code    36  memcpya.o(.text)
    __aeabi_memcpy4                          0x08049471   Thumb Code     0  memcpya.o(.text)
    __aeabi_memcpy8                          0x08049471   Thumb Code     0  memcpya.o(.text)
    __aeabi_memset                           0x08049495   Thumb Code    14  memseta.o(.text)
    __aeabi_memset4                          0x08049495   Thumb Code     0  memseta.o(.text)
    __aeabi_memset8                          0x08049495   Thumb Code     0  memseta.o(.text)
    __aeabi_memclr                           0x080494a3   Thumb Code     4  memseta.o(.text)
    __aeabi_memclr4                          0x080494a3   Thumb Code     0  memseta.o(.text)
    __aeabi_memclr8                          0x080494a3   Thumb Code     0  memseta.o(.text)
    _memset$wrapper                          0x080494a7   Thumb Code    18  memseta.o(.text)
    strcat                                   0x080494b9   Thumb Code    24  strcat.o(.text)
    strstr                                   0x080494d1   Thumb Code    36  strstr.o(.text)
    strncpy                                  0x080494f5   Thumb Code    24  strncpy.o(.text)
    strchr                                   0x0804950d   Thumb Code    20  strchr.o(.text)
    strlen                                   0x08049521   Thumb Code    14  strlen.o(.text)
    strcmp                                   0x0804952f   Thumb Code    28  strcmp.o(.text)
    memcmp                                   0x0804954b   Thumb Code    26  memcmp.o(.text)
    strcpy                                   0x08049565   Thumb Code    18  strcpy.o(.text)
    strncmp                                  0x08049577   Thumb Code    30  strncmp.o(.text)
    strtok                                   0x08049595   Thumb Code    62  strtok.o(.text)
    strrchr                                  0x080495d9   Thumb Code    32  strrchr.o(.text)
    calloc                                   0x080495f9   Thumb Code    28  calloc.o(.text)
    atoi                                     0x08049615   Thumb Code    26  atoi.o(.text)
    __aeabi_dadd                             0x0804962f   Thumb Code   322  dadd.o(.text)
    __aeabi_dsub                             0x08049771   Thumb Code     6  dadd.o(.text)
    __aeabi_drsub                            0x08049777   Thumb Code     6  dadd.o(.text)
    __aeabi_dmul                             0x0804977d   Thumb Code   228  dmul.o(.text)
    __aeabi_ddiv                             0x08049861   Thumb Code   222  ddiv.o(.text)
    __aeabi_i2d                              0x0804993f   Thumb Code    34  dflti.o(.text)
    __aeabi_ui2d                             0x08049961   Thumb Code    26  dfltui.o(.text)
    __aeabi_ul2d                             0x0804997b   Thumb Code    24  dfltul.o(.text)
    __aeabi_d2iz                             0x08049993   Thumb Code    62  dfixi.o(.text)
    __aeabi_f2d                              0x080499d1   Thumb Code    38  f2d.o(.text)
    __aeabi_cdcmpeq                          0x080499f9   Thumb Code     0  cdcmple.o(.text)
    __aeabi_cdcmple                          0x080499f9   Thumb Code    38  cdcmple.o(.text)
    __aeabi_cdrcmple                         0x08049a21   Thumb Code    38  cdrcmple.o(.text)
    __aeabi_d2f                              0x08049a49   Thumb Code    56  d2f.o(.text)
    __aeabi_uidiv                            0x08049a81   Thumb Code     0  uidiv.o(.text)
    __aeabi_uidivmod                         0x08049a81   Thumb Code    44  uidiv.o(.text)
    __aeabi_uldivmod                         0x08049aad   Thumb Code    98  uldiv.o(.text)
    __aeabi_llsl                             0x08049b0f   Thumb Code    30  llshl.o(.text)
    _ll_shift_l                              0x08049b0f   Thumb Code     0  llshl.o(.text)
    __aeabi_llsr                             0x08049b2d   Thumb Code    32  llushr.o(.text)
    _ll_ushift_r                             0x08049b2d   Thumb Code     0  llushr.o(.text)
    __aeabi_lasr                             0x08049b4d   Thumb Code    36  llsshr.o(.text)
    _ll_sshift_r                             0x08049b4d   Thumb Code     0  llsshr.o(.text)
    __strtod_int                             0x08049ba7   Thumb Code    88  strtod.o(.text)
    strtol                                   0x08049c0d   Thumb Code   112  strtol.o(.text)
    __I$use$fp                               0x08049c7d   Thumb Code     0  iusefp.o(.text)
    _float_round                             0x08049c7d   Thumb Code    18  fepilogue.o(.text)
    _float_epilogue                          0x08049c8f   Thumb Code    90  fepilogue.o(.text)
    _double_round                            0x08049ce9   Thumb Code    26  depilogue.o(.text)
    _double_epilogue                         0x08049d03   Thumb Code   164  depilogue.o(.text)
    __ARM_scalbn                             0x08049da7   Thumb Code    46  dscalb.o(.text)
    scalbn                                   0x08049da7   Thumb Code     0  dscalb.o(.text)
    __aeabi_d2ulz                            0x08049dd5   Thumb Code    48  dfixul.o(.text)
    __scatterload                            0x08049e05   Thumb Code    28  init.o(.text)
    __scatterload_rt2                        0x08049e05   Thumb Code     0  init.o(.text)
    _scanf_real                              0x08049f29   Thumb Code     0  scanf_fp.o(.text)
    _scanf_really_real                       0x08049f29   Thumb Code   560  scanf_fp.o(.text)
    _sgetc                                   0x0804a165   Thumb Code    30  _sgetc.o(.text)
    _sbackspace                              0x0804a183   Thumb Code    34  _sgetc.o(.text)
    _strtoul                                 0x0804a1a5   Thumb Code   158  _strtoul.o(.text)
    _dsqrt                                   0x0804a243   Thumb Code   162  dsqrt.o(.text)
    _chval                                   0x0804a2e5   Thumb Code    28  _chval.o(.text)
    __decompress                             0x0804a301   Thumb Code     0  __dclz77c.o(.text)
    __decompress2                            0x0804a301   Thumb Code    96  __dclz77c.o(.text)
    __0fprintf                               0x0804a361   Thumb Code    22  printfa.o(i.__0fprintf)
    __1fprintf                               0x0804a361   Thumb Code     0  printfa.o(i.__0fprintf)
    __2fprintf                               0x0804a361   Thumb Code     0  printfa.o(i.__0fprintf)
    __c89fprintf                             0x0804a361   Thumb Code     0  printfa.o(i.__0fprintf)
    fprintf                                  0x0804a361   Thumb Code     0  printfa.o(i.__0fprintf)
    __0printf                                0x0804a37d   Thumb Code    22  printfa.o(i.__0printf)
    __1printf                                0x0804a37d   Thumb Code     0  printfa.o(i.__0printf)
    __2printf                                0x0804a37d   Thumb Code     0  printfa.o(i.__0printf)
    __c89printf                              0x0804a37d   Thumb Code     0  printfa.o(i.__0printf)
    printf                                   0x0804a37d   Thumb Code     0  printfa.o(i.__0printf)
    __0sprintf                               0x0804a39d   Thumb Code    34  printfa.o(i.__0sprintf)
    __1sprintf                               0x0804a39d   Thumb Code     0  printfa.o(i.__0sprintf)
    __2sprintf                               0x0804a39d   Thumb Code     0  printfa.o(i.__0sprintf)
    __c89sprintf                             0x0804a39d   Thumb Code     0  printfa.o(i.__0sprintf)
    sprintf                                  0x0804a39d   Thumb Code     0  printfa.o(i.__0sprintf)
    __ARM_fpclassify                         0x0804a3c5   Thumb Code    48  fpclassify.o(i.__ARM_fpclassify)
    __aeabi_errno_addr                       0x0804a3f5   Thumb Code     4  errno.o(i.__aeabi_errno_addr)
    __rt_errno_addr                          0x0804a3f5   Thumb Code     0  errno.o(i.__aeabi_errno_addr)
    __hardfp_atof                            0x0804a401   Thumb Code    44  atof.o(i.__hardfp_atof)
    __hardfp_fabs                            0x0804a439   Thumb Code    20  fabs.o(i.__hardfp_fabs)
    __hardfp_floor                           0x0804a451   Thumb Code   252  floor.o(i.__hardfp_floor)
    __hardfp_pow                             0x0804a569   Thumb Code  3132  pow.o(i.__hardfp_pow)
    __kernel_poly                            0x0804b1f9   Thumb Code   248  poly.o(i.__kernel_poly)
    __mathlib_dbl_underflow                  0x0804b2f1   Thumb Code    24  dunder.o(i.__mathlib_dbl_underflow)
    __read_errno                             0x0804b311   Thumb Code     6  errno.o(i.__read_errno)
    __scatterload_copy                       0x0804b31d   Thumb Code    14  handlers.o(i.__scatterload_copy)
    __scatterload_null                       0x0804b32b   Thumb Code     2  handlers.o(i.__scatterload_null)
    __scatterload_zeroinit                   0x0804b32d   Thumb Code    14  handlers.o(i.__scatterload_zeroinit)
    __set_errno                              0x0804b33d   Thumb Code     6  errno.o(i.__set_errno)
    _is_digit                                0x0804b4a5   Thumb Code    14  scanf_fp.o(i._is_digit)
    fabs                                     0x0804bc05   Thumb Code    32  fabs.o(i.fabs)
    free                                     0x0804bc25   Thumb Code    76  malloc.o(i.free)
    malloc                                   0x0804bc75   Thumb Code    92  malloc.o(i.malloc)
    sqrt                                     0x0804bce1   Thumb Code   110  sqrt.o(i.sqrt)
    APBAHBPrescTable                         0x0804c2fc   Data          16  stm32f4xx_hal_rcc.o(.constdata)
    prefix                                   0x0804c30c   Data          16  mib_structs.o(.constdata)
    snmp_scalar                              0x0804c31c   Data          20  mib2.o(.constdata)
    snmp_ids                                 0x0804c330   Data         112  mib2.o(.constdata)
    snmp_nodes                               0x0804c3a0   Data         112  mib2.o(.constdata)
    snmp                                     0x0804c410   Data          28  mib2.o(.constdata)
    udpentry_ids                             0x0804c42c   Data           8  mib2.o(.constdata)
    udpentry_nodes                           0x0804c434   Data           8  mib2.o(.constdata)
    udpentry                                 0x0804c43c   Data          28  mib2.o(.constdata)
    udp_scalar                               0x0804c458   Data          20  mib2.o(.constdata)
    udp_ids                                  0x0804c46c   Data          20  mib2.o(.constdata)
    udp_nodes                                0x0804c480   Data          20  mib2.o(.constdata)
    udp                                      0x0804c494   Data          28  mib2.o(.constdata)
    tcpconnentry_ids                         0x0804c4b0   Data          20  mib2.o(.constdata)
    tcpconnentry_nodes                       0x0804c4c4   Data          20  mib2.o(.constdata)
    tcpconnentry                             0x0804c4d8   Data          28  mib2.o(.constdata)
    tcp_scalar                               0x0804c4f4   Data          20  mib2.o(.constdata)
    tcp_ids                                  0x0804c508   Data          60  mib2.o(.constdata)
    tcp_nodes                                0x0804c544   Data          60  mib2.o(.constdata)
    tcp                                      0x0804c580   Data          28  mib2.o(.constdata)
    icmp_scalar                              0x0804c59c   Data          20  mib2.o(.constdata)
    icmp_ids                                 0x0804c5b0   Data         104  mib2.o(.constdata)
    icmp_nodes                               0x0804c618   Data         104  mib2.o(.constdata)
    icmp                                     0x0804c680   Data          28  mib2.o(.constdata)
    ipntomentry_ids                          0x0804c69c   Data          16  mib2.o(.constdata)
    ipntomentry_nodes                        0x0804c6ac   Data          16  mib2.o(.constdata)
    ipntomentry                              0x0804c6bc   Data          28  mib2.o(.constdata)
    iprteentry_ids                           0x0804c6d8   Data          52  mib2.o(.constdata)
    iprteentry_nodes                         0x0804c70c   Data          52  mib2.o(.constdata)
    iprteentry                               0x0804c740   Data          28  mib2.o(.constdata)
    ipaddrentry_ids                          0x0804c75c   Data          20  mib2.o(.constdata)
    ipaddrentry_nodes                        0x0804c770   Data          20  mib2.o(.constdata)
    ipaddrentry                              0x0804c784   Data          28  mib2.o(.constdata)
    ip_scalar                                0x0804c7a0   Data          20  mib2.o(.constdata)
    ip_ids                                   0x0804c7b4   Data          92  mib2.o(.constdata)
    ip_nodes                                 0x0804c810   Data          92  mib2.o(.constdata)
    mib2_ip                                  0x0804c86c   Data          28  mib2.o(.constdata)
    atentry_ids                              0x0804c888   Data          12  mib2.o(.constdata)
    atentry_nodes                            0x0804c894   Data          12  mib2.o(.constdata)
    atentry                                  0x0804c8a0   Data          28  mib2.o(.constdata)
    attable_id                               0x0804c8bc   Data           4  mib2.o(.constdata)
    attable_node                             0x0804c8c0   Data           4  mib2.o(.constdata)
    attable                                  0x0804c8c4   Data          28  mib2.o(.constdata)
    ifentry_ids                              0x0804c8e0   Data          88  mib2.o(.constdata)
    ifentry_nodes                            0x0804c938   Data          88  mib2.o(.constdata)
    ifentry                                  0x0804c990   Data          28  mib2.o(.constdata)
    interfaces_scalar                        0x0804c9ac   Data          20  mib2.o(.constdata)
    interfaces_ids                           0x0804c9c0   Data           8  mib2.o(.constdata)
    interfaces_nodes                         0x0804c9c8   Data           8  mib2.o(.constdata)
    interfaces                               0x0804c9d0   Data          28  mib2.o(.constdata)
    sys_tem_scalar                           0x0804c9ec   Data          20  mib2.o(.constdata)
    sys_tem_ids                              0x0804ca00   Data          28  mib2.o(.constdata)
    sys_tem_nodes                            0x0804ca1c   Data          28  mib2.o(.constdata)
    sys_tem                                  0x0804ca38   Data          28  mib2.o(.constdata)
    mib2_ids                                 0x0804ca54   Data          32  mib2.o(.constdata)
    mib2_nodes                               0x0804ca74   Data          32  mib2.o(.constdata)
    mib2                                     0x0804ca94   Data          28  mib2.o(.constdata)
    mgmt_ids                                 0x0804cab0   Data           4  mib2.o(.constdata)
    mgmt_nodes                               0x0804cab4   Data           4  mib2.o(.constdata)
    mgmt                                     0x0804cab8   Data          28  mib2.o(.constdata)
    internet_ids                             0x0804cad4   Data           4  mib2.o(.constdata)
    internet_nodes                           0x0804cad8   Data           4  mib2.o(.constdata)
    internet                                 0x0804cadc   Data          28  mib2.o(.constdata)
    snmp_version                             0x0804cc18   Data           4  msg_in.o(.constdata)
    snmp_publiccommunity                     0x0804cc1c   Data           7  msg_in.o(.constdata)
    tcp_state_str                            0x0804cc60   Data          44  tcp.o(.constdata)
    tcp_backoff                              0x0804cc8c   Data          13  tcp.o(.constdata)
    tcp_persist_backoff                      0x0804cc99   Data           7  tcp.o(.constdata)
    tcp_pcb_lists                            0x0804cca0   Data          16  tcp.o(.constdata)
    ethbroadcast                             0x0804cd08   Data           6  etharp.o(.constdata)
    ethzero                                  0x0804cd0e   Data           6  etharp.o(.constdata)
    ip_addr_any                              0x0804cd58   Data           4  ip_addr.o(.constdata)
    ip_addr_broadcast                        0x0804cd5c   Data           4  ip_addr.o(.constdata)
    g_psDefaultFilenames                     0x0804cf30   Data          40  httpd.o(.constdata)
    g_pcTagLeadIn                            0x0804cf58   Data           4  httpd.o(.constdata)
    g_pcTagLeadOut                           0x0804cf5c   Data           4  httpd.o(.constdata)
    __ctype_table                            0x0804d1c0   Data         129  ctype_o.o(.constdata)
    __mathlib_zero                           0x0804d258   Data           8  qnan.o(.constdata)
    Region$$Table$$Base                      0x08051828   Number         0  anon$$obj.o(Region$$Table)
    Region$$Table$$Limit                     0x08051868   Number         0  anon$$obj.o(Region$$Table)
    __initial_sp                             0x20010000   Data           0  startup_stm32f429x.o(STACK)
    com1dataBuffer1                          0x20010000   Data        3072  veth_serial.o(COMDATABUFFER)
    com1dataBuffer2                          0x20010c00   Data        3072  veth_serial.o(COMDATABUFFER)
    com1dataBuffer                           0x20011800   Data        3072  veth_serial.o(COMDATABUFFER)
    com2dataBuffer1                          0x20012400   Data        3072  veth_serial.o(COMDATABUFFER)
    com2dataBuffer2                          0x20013000   Data        3072  veth_serial.o(COMDATABUFFER)
    com2dataBuffer                           0x20013c00   Data        3072  veth_serial.o(COMDATABUFFER)
    com3dataBuffer1                          0x20014800   Data        3072  veth_serial.o(COMDATABUFFER)
    com3dataBuffer2                          0x20015400   Data        3072  veth_serial.o(COMDATABUFFER)
    com3dataBuffer                           0x20016000   Data        3072  veth_serial.o(COMDATABUFFER)
    com4dataBuffer1                          0x20016c00   Data        3072  veth_serial.o(COMDATABUFFER)
    com4dataBuffer2                          0x20017800   Data        3072  veth_serial.o(COMDATABUFFER)
    com4dataBuffer                           0x20018400   Data        3072  veth_serial.o(COMDATABUFFER)
    SystemCoreClock                          0xc0030000   Data           4  system_stm32f4xx.o(.data)
    AHBPrescTable                            0xc0030004   Data          16  system_stm32f4xx.o(.data)
    mystr                                    0xc0033ac0   Data           7  main.o(.data)
    PC_MAC                                   0xc0033ac7   Data           6  main.o(.data)
    command_tag                              0xc0033acd   Data           1  main.o(.data)
    g_reset_time                             0xc0033ad0   Data           4  main.o(.data)
    g_reset_targ                             0xc0033ad4   Data           1  main.o(.data)
    User                                     0xc0037584   Data          10  veth_com_usart.o(.data)
    Code                                     0xc003758e   Data          10  veth_com_usart.o(.data)
    MAC_op                                   0xc0037598   Data          10  veth_com_usart.o(.data)
    MAC_mod                                  0xc00375a2   Data          30  veth_com_usart.o(.data)
    MAC_dis                                  0xc00375c0   Data          10  veth_com_usart.o(.data)
    IP_op                                    0xc00375ca   Data          10  veth_com_usart.o(.data)
    IP_mod                                   0xc00375d4   Data          30  veth_com_usart.o(.data)
    IP_dis                                   0xc00375f2   Data          10  veth_com_usart.o(.data)
    SYSTEM_op                                0xc00375fc   Data          20  veth_com_usart.o(.data)
    SYS_RESTART                              0xc0037610   Data          10  veth_com_usart.o(.data)
    SYS_REINIT                               0xc003761a   Data          10  veth_com_usart.o(.data)
    SYS_RENAME                               0xc0037624   Data          20  veth_com_usart.o(.data)
    SYS_REENCRY                              0xc0037638   Data          20  veth_com_usart.o(.data)
    RSTP_op                                  0xc003764c   Data          20  veth_com_usart.o(.data)
    BRIDGE_PRI_mod                           0xc0037660   Data          20  veth_com_usart.o(.data)
    BRIDGE_HLO_mod                           0xc0037674   Data          20  veth_com_usart.o(.data)
    BRIDGE_MAXAGE_mod                        0xc0037688   Data          20  veth_com_usart.o(.data)
    BRIDGE_FWD_mod                           0xc003769c   Data          20  veth_com_usart.o(.data)
    BRIDGE_DISPLAY                           0xc00376b0   Data          10  veth_com_usart.o(.data)
    UP_op                                    0xc00376ba   Data          10  veth_com_usart.o(.data)
    Command_op                               0xc00376c4   Data          10  veth_com_usart.o(.data)
    LOGOUT_op                                0xc00376ce   Data          10  veth_com_usart.o(.data)
    CLI_targ                                 0xc00376dd   Data           1  veth_com_usart.o(.data)
    mac_targ                                 0xc00376de   Data           1  veth_com_usart.o(.data)
    ip_targ                                  0xc00376df   Data           1  veth_com_usart.o(.data)
    rstp_targ                                0xc00376e0   Data           1  veth_com_usart.o(.data)
    system_targ                              0xc00376e1   Data           1  veth_com_usart.o(.data)
    code_targ                                0xc00376e2   Data           1  veth_com_usart.o(.data)
    cli_pt                                   0xc00376e4   Data           2  veth_com_usart.o(.data)
    KEY_MAC                                  0xc00376e8   Data           6  veth_hal_init.o(.data)
    MGMT_MAC                                 0xc00376ee   Data           6  veth_hal_init.o(.data)
    GET_NEXT                                 0xc00376f4   Data           6  veth_hal_init.o(.data)
    SET_INFO                                 0xc00376fa   Data         120  veth_hal_init.o(.data)
    SET_IP                                   0xc0037772   Data          13  veth_hal_init.o(.data)
    USER_INFO                                0xc003777f   Data          40  veth_hal_init.o(.data)
    the_magic                                0xc00377a7   Data          14  veth_hal_init.o(.data)
    g_set_name                               0xc00377b5   Data          20  veth_hal_init.o(.data)
    VETH3000_4S                              0xc00377c9   Data          20  veth_hal_init.o(.data)
    g_set_version                            0xc00377dd   Data          10  veth_hal_init.o(.data)
    g_set_type1                              0xc00377e7   Data          20  veth_hal_init.o(.data)
    g_set_type2                              0xc00377fb   Data          20  veth_hal_init.o(.data)
    g_set_type3                              0xc003780f   Data          20  veth_hal_init.o(.data)
    read_com6                                0xc0037824   Data           4  veth_hal_init.o(.data)
    read_com1                                0xc0037828   Data           4  veth_hal_init.o(.data)
    read_com5                                0xc003782c   Data           4  veth_hal_init.o(.data)
    sCount                                   0xc0037830   Data           4  veth_hal_init.o(.data)
    msCount                                  0xc0037834   Data           4  veth_hal_init.o(.data)
    rCount                                   0xc0037838   Data           4  veth_hal_init.o(.data)
    FirstSector                              0xc003b2e8   Data           4  veth_invariate.o(.data)
    NbOfSectors                              0xc003b2ec   Data           4  veth_invariate.o(.data)
    Address                                  0xc003b2f0   Data           4  veth_invariate.o(.data)
    SectorError                              0xc003b2f4   Data           4  veth_invariate.o(.data)
    data32                                   0xc003b2f8   Data           4  veth_invariate.o(.data)
    MemoryProgramStatus                      0xc003b2fc   Data           4  veth_invariate.o(.data)
    data8                                    0xc003b300   Data           1  veth_invariate.o(.data)
    trunk_vector                             0xc003b302   Data           2  veth_marvell_6097f.o(.data)
    mask_table                               0xc003b304   Data          16  veth_marvell_6097f.o(.data)
    KEY_MAC_1                                0xc003b314   Data           6  veth_marvell_6097f.o(.data)
    bridge_name                              0xc003b31c   Data          10  veth_rstp.o(.data)
    enabled_ports                            0xc003b32c   Data           4  veth_rstp.o(.data)
    timer_targ                               0xc003b330   Data           1  veth_rstp.o(.data)
    rstp_pt                                  0xc003b332   Data           2  veth_rstp.o(.data)
    testString                               0xc003ede0   Data          20  veth_serial.o(.data)
    testStrings                              0xc003edf4   Data          20  veth_serial.o(.data)
    testStringss                             0xc003ee08   Data          20  veth_serial.o(.data)
    testStringsss                            0xc003ee1c   Data          20  veth_serial.o(.data)
    my_str                                   0xc003ee30   Data          20  veth_serial.o(.data)
    targ                                     0xc003ee44   Data           1  veth_serial.o(.data)
    test_String                              0xc003ee45   Data        3072  veth_serial.o(.data)
    serial_send_total_length_1               0xc003fa48   Data           4  veth_serial.o(.data)
    serial_send_total_length_2               0xc003fa4c   Data           4  veth_serial.o(.data)
    serial_send_total_length_3               0xc003fa50   Data           4  veth_serial.o(.data)
    serial_send_total_length_4               0xc003fa54   Data           4  veth_serial.o(.data)
    test_total_length                        0xc003fa58   Data           4  veth_serial.o(.data)
    test_total_FIFO_data                     0xc003fa5c   Data           4  veth_serial.o(.data)
    test_FIFO_before                         0xc003fa60   Data           4  veth_serial.o(.data)
    test_FIFO_after                          0xc003fa64   Data           4  veth_serial.o(.data)
    test_HaHa1                               0xc003fa68   Data           4  veth_serial.o(.data)
    test_HaHa2                               0xc003fa6c   Data           4  veth_serial.o(.data)
    fifo_error_counter                       0xc003fa70   Data           4  veth_serial.o(.data)
    transfer_error_counter                   0xc003fa74   Data           4  veth_serial.o(.data)
    test_HaHa_else                           0xc003fa78   Data           4  veth_serial.o(.data)
    test_HaHa_EN                             0xc003fa7c   Data           4  veth_serial.o(.data)
    test_HaHa_TC                             0xc003fa80   Data           4  veth_serial.o(.data)
    test_HaHa_len                            0xc003fa84   Data           4  veth_serial.o(.data)
    test_rcv_length                          0xc003fa88   Data           4  veth_serial.o(.data)
    idle_targ                                0xc003fa8c   Data           1  veth_serial.o(.data)
    test_string_len                          0xc003fa90   Data           4  veth_serial.o(.data)
    x                                        0xc003fa94   Data           2  veth_serial.o(.data)
    temp_register                            0xc003faac   Data           4  veth_serial.o(.data)
    i                                        0xc003fab0   Data           2  veth_serial.o(.data)
    the_int_wait                             0xc003fab2   Data           2  veth_serial.o(.data)
    max_port                                 0xc003fb64   Data           4  stp_in.o(.data)
    tev                                      0xc003fb68   Data           1  stp_in.o(.data)
    nev                                      0xc003fb6c   Data           4  stp_in.o(.data)
    tem_bin                                  0xc0043720   Data       51200  veth_netupgrade.o(.data)
    Targ_MAC                                 0xc004ff20   Data           6  veth_mac.o(.data)
    g_stats_mode                             0xc004ff26   Data           1  veth_port.o(.data)
    command_gen                              0xc00539d8   Data           4  stm32f4xx_hal_uart.o(.data)
    testStringx                              0xc00539dc   Data          20  stm32f4xx_hal_uart.o(.data)
    comd                                     0xc00539f0   Data           1  stm32f4xx_hal_uart.o(.data)
    udp_root                                 0xc00574b0   Data          32  mib2.o(.data)
    udptable_id                              0xc00574d0   Data           4  mib2.o(.data)
    udptable_node                            0xc00574d4   Data           4  mib2.o(.data)
    udptable                                 0xc00574d8   Data          28  mib2.o(.data)
    tcpconntree_root                         0xc00574f4   Data          32  mib2.o(.data)
    tcpconntable_id                          0xc0057514   Data           4  mib2.o(.data)
    tcpconntable_node                        0xc0057518   Data           4  mib2.o(.data)
    tcpconntable                             0xc005751c   Data          28  mib2.o(.data)
    ipntomtree_root                          0xc0057538   Data          32  mib2.o(.data)
    ipntomtable_id                           0xc0057558   Data           4  mib2.o(.data)
    ipntomtable_node                         0xc005755c   Data           4  mib2.o(.data)
    ipntomtable                              0xc0057560   Data          28  mib2.o(.data)
    iprtetree_root                           0xc005757c   Data          32  mib2.o(.data)
    iprtetable_id                            0xc005759c   Data           4  mib2.o(.data)
    iprtetable_node                          0xc00575a0   Data           4  mib2.o(.data)
    iprtetable                               0xc00575a4   Data          28  mib2.o(.data)
    ipaddrtree_root                          0xc00575c0   Data          32  mib2.o(.data)
    ipaddrtable_id                           0xc00575e0   Data           4  mib2.o(.data)
    ipaddrtable_node                         0xc00575e4   Data           4  mib2.o(.data)
    ipaddrtable                              0xc00575e8   Data          28  mib2.o(.data)
    arptree_root                             0xc0057604   Data          32  mib2.o(.data)
    at_id                                    0xc0057624   Data           4  mib2.o(.data)
    mib2_at_node                             0xc0057628   Data           4  mib2.o(.data)
    at                                       0xc005762c   Data          28  mib2.o(.data)
    iflist_root                              0xc0057648   Data          32  mib2.o(.data)
    iftable_id                               0xc0057668   Data           4  mib2.o(.data)
    iftable_node                             0xc005766c   Data           4  mib2.o(.data)
    iftable                                  0xc0057670   Data          28  mib2.o(.data)
    snmp1_pcb                                0xc0057908   Data           4  msg_in.o(.data)
    trap_dst                                 0xc005790c   Data           8  msg_out.o(.data)
    tcp_ticks                                0xc005791c   Data           4  tcp.o(.data)
    tcp_bound_pcbs                           0xc0057920   Data           4  tcp.o(.data)
    tcp_listen_pcbs                          0xc0057924   Data           4  tcp.o(.data)
    tcp_active_pcbs                          0xc0057928   Data           4  tcp.o(.data)
    tcp_tw_pcbs                              0xc005792c   Data           4  tcp.o(.data)
    tcp_tmp_pcb                              0xc0057930   Data           4  tcp.o(.data)
    tcp_active_pcbs_changed                  0xc0057934   Data           1  tcp.o(.data)
    tcp_input_pcb                            0xc005795c   Data           4  tcp_in.o(.data)
    udp_pcbs                                 0xc0057970   Data           4  udp.o(.data)
    current_netif                            0xc005b424   Data           4  ip.o(.data)
    current_header                           0xc005b428   Data           4  ip.o(.data)
    current_iphdr_src                        0xc005b42c   Data           4  ip.o(.data)
    current_iphdr_dest                       0xc005b430   Data           4  ip.o(.data)
    netif_list                               0xc005b44c   Data           4  netif.o(.data)
    netif_default                            0xc005b450   Data           4  netif.o(.data)
    download_config_file_request             0xc005ef08   Data           1  board_info.o(.data)
    ports_num                                0xc005ef0c   Data           4  board_info.o(.data)
    is_open_delay_config_ports               0xc005ef10   Data           1  board_info.o(.data)
    delay_config_ports_time                  0xc005ef14   Data           4  board_info.o(.data)
    data__lib_config_js                      0xc0071e1d   Data         552  fs.o(.data)
    file__images_conflict_gif                0xc01013fc   Data          20  fs.o(.data)
    file__images_factory_gif                 0xc0101410   Data          20  fs.o(.data)
    file__images_favicon_ico                 0xc0101424   Data          20  fs.o(.data)
    file__images_forbid_gif                  0xc0101438   Data          20  fs.o(.data)
    file__images_jack_copper_disabled_bottom_png 0xc010144c   Data          20  fs.o(.data)
    file__images_jack_copper_disabled_top_png 0xc0101460   Data          20  fs.o(.data)
    file__images_jack_copper_down_bottom_png 0xc0101474   Data          20  fs.o(.data)
    file__images_jack_copper_down_top_png    0xc0101488   Data          20  fs.o(.data)
    file__images_jack_copper_link_bottom_png 0xc010149c   Data          20  fs.o(.data)
    file__images_jack_copper_link_top_png    0xc01014b0   Data          20  fs.o(.data)
    file__images_jack_hdmi_disabled_bottom_png 0xc01014c4   Data          20  fs.o(.data)
    file__images_jack_hdmi_down_bottom_png   0xc01014d8   Data          20  fs.o(.data)
    file__images_jack_hdmi_link_bottom_png   0xc01014ec   Data          20  fs.o(.data)
    file__images_jack_hdmi_sprout_bottom_png 0xc0101500   Data          20  fs.o(.data)
    file__images_jack_sfp_disabled_bottom_png 0xc0101514   Data          20  fs.o(.data)
    file__images_jack_sfp_down_bottom_png    0xc0101528   Data          20  fs.o(.data)
    file__images_jack_sfp_link_bottom_png    0xc010153c   Data          20  fs.o(.data)
    file__images_jack_sfp_sprout_bottom_png  0xc0101550   Data          20  fs.o(.data)
    file__images_jack_sfp_up_bottom_png      0xc0101564   Data          20  fs.o(.data)
    file__images_jack_x2_disabled_bottom_png 0xc0101578   Data          20  fs.o(.data)
    file__images_jack_x2_down_bottom_png     0xc010158c   Data          20  fs.o(.data)
    file__images_jack_x2_link_bottom_png     0xc01015a0   Data          20  fs.o(.data)
    file__images_led_down_gif                0xc01015b4   Data          20  fs.o(.data)
    file__images_led_green_small_gif         0xc01015c8   Data          20  fs.o(.data)
    file__images_led_off_small_gif           0xc01015dc   Data          20  fs.o(.data)
    file__images_led_up_gif                  0xc01015f0   Data          20  fs.o(.data)
    file__images_logo_png                    0xc0101604   Data          20  fs.o(.data)
    file__images_logout_png                  0xc0101618   Data          20  fs.o(.data)
    file__images_menu_o_gif                  0xc010162c   Data          20  fs.o(.data)
    file__images_no_gif                      0xc0101640   Data          20  fs.o(.data)
    file__images_port_gif                    0xc0101654   Data          20  fs.o(.data)
    file__images_port_1_gif                  0xc0101668   Data          20  fs.o(.data)
    file__images_port_2_gif                  0xc010167c   Data          20  fs.o(.data)
    file__images_port_3_gif                  0xc0101690   Data          20  fs.o(.data)
    file__images_switch_small_png            0xc01016a4   Data          20  fs.o(.data)
    file__images_title_png                   0xc01016b8   Data          20  fs.o(.data)
    file__images_title1_png                  0xc01016cc   Data          20  fs.o(.data)
    file__images_updating_gif                0xc01016e0   Data          20  fs.o(.data)
    file__images_yes_gif                     0xc01016f4   Data          20  fs.o(.data)
    file__lib_ajax_js                        0xc0101708   Data          20  fs.o(.data)
    file__lib_config_js                      0xc010171c   Data          20  fs.o(.data)
    file__lib_control_js                     0xc0101730   Data          20  fs.o(.data)
    file__lib_cookie_js                      0xc0101744   Data          20  fs.o(.data)
    file__lib_core_js                        0xc0101758   Data          20  fs.o(.data)
    file__lib_demo_css                       0xc010176c   Data          20  fs.o(.data)
    file__lib_exporting_js                   0xc0101780   Data          20  fs.o(.data)
    file__lib_filter_css                     0xc0101794   Data          20  fs.o(.data)
    file__lib_format_js                      0xc01017a8   Data          20  fs.o(.data)
    file__lib_formUtility_js                 0xc01017bc   Data          20  fs.o(.data)
    file__lib_highcharts_js                  0xc01017d0   Data          20  fs.o(.data)
    file__lib_html5_js                       0xc01017e4   Data          20  fs.o(.data)
    file__lib_jquery_min_js                  0xc01017f8   Data          20  fs.o(.data)
    file__lib_normal_css                     0xc010180c   Data          20  fs.o(.data)
    file__lib_validate_js                    0xc0101820   Data          20  fs.o(.data)
    file__404_html                           0xc0101834   Data          20  fs.o(.data)
    file__bandwidth_chart_shtml              0xc0101848   Data          20  fs.o(.data)
    file__download_config_file_shtml         0xc010185c   Data          20  fs.o(.data)
    file__dyna_mac_shtml                     0xc0101870   Data          20  fs.o(.data)
    file__factory_shtml                      0xc0101884   Data          20  fs.o(.data)
    file__index_shtml                        0xc0101898   Data          20  fs.o(.data)
    file__left_html                          0xc01018ac   Data          20  fs.o(.data)
    file__login_shtml                        0xc01018c0   Data          20  fs.o(.data)
    file__mac_shtml                          0xc01018d4   Data          20  fs.o(.data)
    file__ports_shtml                        0xc01018e8   Data          20  fs.o(.data)
    file__restart_shtml                      0xc01018fc   Data          20  fs.o(.data)
    file__save_all_shtml                     0xc0101910   Data          20  fs.o(.data)
    file__serial_shtml                       0xc0101924   Data          20  fs.o(.data)
    file__stat_detailed_shtml                0xc0101938   Data          20  fs.o(.data)
    file__stat_ports_shtml                   0xc010194c   Data          20  fs.o(.data)
    file__sys_shtml                          0xc0101960   Data          20  fs.o(.data)
    file__system_config_shtml                0xc0101974   Data          20  fs.o(.data)
    file__system_log_shtml                   0xc0101988   Data          20  fs.o(.data)
    file__top_html                           0xc010199c   Data          20  fs.o(.data)
    file__update_shtml                       0xc01019b0   Data          20  fs.o(.data)
    file__upload_config_file_shtml           0xc01019c4   Data          20  fs.o(.data)
    file__vlan_shtml                         0xc01019d8   Data          20  fs.o(.data)
    file__vlan_membership_stat_shtml         0xc01019ec   Data          20  fs.o(.data)
    file__vlan_port_shtml                    0xc0101a00   Data          20  fs.o(.data)
    file__vlan_port_stat_shtml               0xc0101a14   Data          20  fs.o(.data)
    board                                    0xc01054d4   Data       80808  web_main.o(.data)
    auto_ntp_refresh_timeout                 0xc011907c   Data           4  web_main.o(.data)
    isConfigRemoteHost                       0xc0119080   Data           4  web_main.o(.data)
    serial_data_timeout                      0xc0119084   Data           4  web_main.o(.data)
    igmp_time_out                            0xc0119088   Data           4  web_main.o(.data)
    print_timeout                            0xc011908c   Data           4  web_main.o(.data)
    bp_targ                                  0xc0119090   Data           1  web_main.o(.data)
    isFirstRequest                           0xc0119091   Data           1  web_main.o(.data)
    isFirstRequestPorts                      0xc0119092   Data           1  web_main.o(.data)
    isFirstRequestVlanPorts                  0xc0119093   Data           1  web_main.o(.data)
    isRecoverMacConfig                       0xc0119094   Data           1  web_main.o(.data)
    vlan_time_out                            0xc0119098   Data           4  web_main.o(.data)
    is_reboot                                0xc011909c   Data           1  web_main.o(.data)
    ntp_request_timeout                      0xc01190a0   Data           4  web_main.o(.data)
    write_flash_time                         0xc01190a4   Data           4  web_main.o(.data)
    recond_system_reboot_time_out            0xc01190a8   Data           4  web_main.o(.data)
    lwip_time_out                            0xc01190ac   Data           4  web_main.o(.data)
    sigalarm_time_out                        0xc01190b0   Data           4  web_main.o(.data)
    snmp_system_inc_timeout                  0xc01190b4   Data           4  web_main.o(.data)
    serial_client_timeout                    0xc01190b8   Data           4  web_main.o(.data)
    crc_ccitt_tab                            0xc01190bc   Data         512  crc16.o(.data)
    g_pfnSSIHandler                          0xc011cd6c   Data           4  httpd.o(.data)
    g_iNumTags                               0xc011cd70   Data           4  httpd.o(.data)
    g_ppcTags                                0xc011cd74   Data           4  httpd.o(.data)
    current_http_connection                  0xc011cd7c   Data           4  httpd.o(.data)
    port_mode                                0xc0120830   Data          13  httpd-cgi.o(.data)
    change_status                            0xc012083d   Data          13  httpd-cgi.o(.data)
    is_file_download                         0xc012084a   Data           1  httpd-cgi.o(.data)
    upDown                                   0xc01242f8   Data           8  ports.o(.data)
    speedType                                0xc0124300   Data          28  ports.o(.data)
    link_down                                0xc012431c   Data           8  ports.o(.data)
    top_bottom                               0xc0124324   Data           8  ports.o(.data)
    band_width_refresh_time                  0xc0124330   Data           4  ports.o(.data)
    isRestartDevice                          0xc0127de4   Data           4  system_maintain.o(.data)
    network_update_sucess                    0xc0127de8   Data           1  system_maintain.o(.data)
    url_buf_length                           0xc0127dec   Data           4  system_maintain.o(.data)
    is_recover_factory                       0xc012f348   Data           1  system_info.o(.data)
    time_update_interval                     0xc012f34c   Data           4  system_info.o(.data)
    system_start_time                        0xc012f350   Data           4  system_info.o(.data)
    mac_addr_num                             0xc0132e00   Data           4  mac_link.o(.data)
    mac_root                                 0xc0132e04   Data           4  mac_link.o(.data)
    age_time                                 0xc0132e08   Data           4  mac_link.o(.data)
    hex                                      0xc01368b8   Data           6  mac_table.o(.data)
    vlan_num                                 0xc013a36c   Data           4  vlan_link.o(.data)
    vlan_root                                0xc013a370   Data           4  vlan_link.o(.data)
    request_failed_num                       0xc013de28   Data           1  ntp_client.o(.data)
    is_need_record_time_log                  0xc013de29   Data           1  ntp_client.o(.data)
    is_open_ntp_request_timer                0xc013de2a   Data           1  ntp_client.o(.data)
    ntp_send_request_time                    0xc013de2c   Data           4  ntp_client.o(.data)
    final_JSON_result                        0xc01418e8   Data           4  jsonutility.o(.data)
    http_header_length                       0xc0145398   Data           4  upload_file.o(.data)
    log_num                                  0xc0148e48   Data           4  loginfo.o(.data)
    log_use_total_memory                     0xc0148e4c   Data           4  loginfo.o(.data)
    log_root                                 0xc0148e50   Data           4  loginfo.o(.data)
    session_root                             0xc014c900   Data           4  session.o(.data)
    server_queue_all_length                  0xc01503b0   Data           4  serialutility.o(.data)
    __stderr                                 0xc01503b4   Data           4  stderr.o(.data)
    __stdout                                 0xc01503c0   Data           4  stdout.o(.data)
    __microlib_freelist                      0xc01503c4   Data           4  mvars.o(.data)
    __microlib_freelist_initialised          0xc01503c8   Data           4  mvars.o(.data)
    TX_BUFFER                                0xc01503d0   Data       128000  veth_hal_init.o(EXTSDRAM)
    RX_BUFFER                                0xc016f7d0   Data       128000  veth_hal_init.o(EXTSDRAM)
    Eth_Handle                               0xc018ebd0   Data          72  main.o(.bss)
    IwdgHandle                               0xc018ec18   Data          16  main.o(.bss)
    comdin                                   0xc018ec28   Data          20  main.o(.bss)
    bpdu_count                               0xc018ec64   Data          12  veth_eth_ap.o(.bss)
    COM6_TX_buffer                           0xc018ec70   Data        1600  veth_hal_init.o(.bss)
    COM6_RX_buffer                           0xc018f2b0   Data        1600  veth_hal_init.o(.bss)
    COM1_TX_buffer                           0xc018f8f0   Data        1600  veth_hal_init.o(.bss)
    COM1_RX_buffer                           0xc018ff30   Data        1600  veth_hal_init.o(.bss)
    COM5_TX_buffer                           0xc0190570   Data        1600  veth_hal_init.o(.bss)
    COM5_RX_buffer                           0xc0190bb0   Data        1600  veth_hal_init.o(.bss)
    COM4_TX_buffer                           0xc01911f0   Data        1600  veth_hal_init.o(.bss)
    COM4_RX_buffer                           0xc0191830   Data        1600  veth_hal_init.o(.bss)
    COM7_TX_buffer                           0xc0191e70   Data        1600  veth_hal_init.o(.bss)
    COM7_RX_buffer                           0xc01924b0   Data        1600  veth_hal_init.o(.bss)
    TimHandle                                0xc0192af0   Data          60  veth_hal_init.o(.bss)
    TimsHandle                               0xc0192b2c   Data          60  veth_hal_init.o(.bss)
    TimrHandle                               0xc0192b68   Data          60  veth_hal_init.o(.bss)
    Uart6Handle                              0xc0192ba4   Data         156  veth_hal_init.o(.bss)
    Uart5Handle                              0xc0192c40   Data         156  veth_hal_init.o(.bss)
    Uart1Handle                              0xc0192cdc   Data         156  veth_hal_init.o(.bss)
    Uart4Handle                              0xc0192d78   Data         156  veth_hal_init.o(.bss)
    Uart7Handle                              0xc0192e14   Data         156  veth_hal_init.o(.bss)
    SDRAMHandle                              0xc0192eb0   Data          52  veth_hal_init.o(.bss)
    SDRAM_Timing                             0xc0192ee4   Data          28  veth_hal_init.o(.bss)
    SDRAM_Command                            0xc0192f00   Data          16  veth_hal_init.o(.bss)
    norHandle                                0xc0192f10   Data          68  veth_hal_init.o(.bss)
    Timing                                   0xc0192f54   Data          28  veth_hal_init.o(.bss)
    I2C1Handle                               0xc0192f70   Data          56  veth_hal_init.o(.bss)
    TX_LIST                                  0xc0192fa8   Data        2560  veth_hal_init.o(.bss)
    RX_LIST                                  0xc01939a8   Data        2560  veth_hal_init.o(.bss)
    my_invarite                              0xc01943bc   Data         210  veth_invariate.o(.bss)
    com1rcvBuffer1                           0xc0194758   Data       46080  veth_serial.o(.bss)
    com1rcvBuffer2                           0xc019fb58   Data       46080  veth_serial.o(.bss)
    com2rcvBuffer1                           0xc01aaf58   Data       46080  veth_serial.o(.bss)
    com2rcvBuffer2                           0xc01b6358   Data       46080  veth_serial.o(.bss)
    com3rcvBuffer1                           0xc01c1758   Data       46080  veth_serial.o(.bss)
    com3rcvBuffer2                           0xc01ccb58   Data       46080  veth_serial.o(.bss)
    com4rcvBuffer1                           0xc01d7f58   Data       46080  veth_serial.o(.bss)
    com4rcvBuffer2                           0xc01e3358   Data       46080  veth_serial.o(.bss)
    com1dataFIFO                             0xc01ee758   Data       30720  veth_serial.o(.bss)
    com2dataFIFO                             0xc01f5f58   Data       30720  veth_serial.o(.bss)
    com3dataFIFO                             0xc01fd758   Data       30720  veth_serial.o(.bss)
    com4dataFIFO                             0xc0204f58   Data       30720  veth_serial.o(.bss)
    com1rcvFIFO                              0xc020c758   Data       30720  veth_serial.o(.bss)
    com2rcvFIFO                              0xc0213f58   Data       30720  veth_serial.o(.bss)
    com3rcvFIFO                              0xc021b758   Data       30720  veth_serial.o(.bss)
    com4rcvFIFO                              0xc0222f58   Data       30720  veth_serial.o(.bss)
    com1FIFO                                 0xc022a758   Data          36  veth_serial.o(.bss)
    com2FIFO                                 0xc022a77c   Data          36  veth_serial.o(.bss)
    com3FIFO                                 0xc022a7a0   Data          36  veth_serial.o(.bss)
    com4FIFO                                 0xc022a7c4   Data          36  veth_serial.o(.bss)
    com1rxFIFO                               0xc022a7e8   Data          36  veth_serial.o(.bss)
    com2rxFIFO                               0xc022a80c   Data          36  veth_serial.o(.bss)
    com3rxFIFO                               0xc022a830   Data          36  veth_serial.o(.bss)
    com4rxFIFO                               0xc022a854   Data          36  veth_serial.o(.bss)
    com1DmaStatus                            0xc022a878   Data          32  veth_serial.o(.bss)
    com2DmaStatus                            0xc022a898   Data          32  veth_serial.o(.bss)
    com3DmaStatus                            0xc022a8b8   Data          32  veth_serial.o(.bss)
    com4DmaStatus                            0xc022a8d8   Data          32  veth_serial.o(.bss)
    com1RcvStatus                            0xc022a8f8   Data          28  veth_serial.o(.bss)
    com2RcvStatus                            0xc022a914   Data          28  veth_serial.o(.bss)
    com3RcvStatus                            0xc022a930   Data          28  veth_serial.o(.bss)
    com4RcvStatus                            0xc022a94c   Data          28  veth_serial.o(.bss)
    pFlash                                   0xc022a968   Data          28  stm32f4xx_hal_flash.o(.bss)
    Command                                  0xc022a984   Data          50  stm32f4xx_hal_uart.o(.bss)
    msg_input_list                           0xc022ab38   Data         304  msg_in.o(.bss)
    trap_msg                                 0xc022ac68   Data          68  msg_out.o(.bss)
    lwip_stats                               0xc022acac   Data         516  stats.o(.bss)
    veth_netif                               0xc024a9e0   Data         104  netif.o(.bss)
    is_modify_port                           0xc024aa48   Data          10  board_info.o(.bss)
    board_temp                               0xc024aa54   Data       80808  web_main.o(.bss)
    pre_port_link_status                     0xc025e5fc   Data          10  web_main.o(.bss)
    pre_rx_byte                              0xc025f330   Data          80  ports.o(.bss)
    pre_tx_byte                              0xc025f380   Data          80  ports.o(.bss)
    ports_pre_band_width                     0xc025f3d0   Data         200  ports.o(.bss)
    data                                     0xc025f4dc   Data         100  system_maintain.o(.bss)
    save_all_config_result                   0xc025f540   Data          16  system_maintain.o(.bss)
    remote_serial_server_socket              0xc025f550   Data         768  system_maintain.o(.bss)
    pre_compile_date                         0xc025f850   Data          30  system_maintain.o(.bss)
    system_time                              0xc025fa94   Data          48  system_info.o(.bss)
    mac_addr                                 0xc0261ac4   Data         400  mac_table.o(.bss)
    login_status                             0xc0264284   Data          32  user.o(.bss)
    string_hash                              0xc02642d4   Data          64  stringhashtable.o(.bss)
    server_array_queue                       0xc0266314   Data          32  serialqueue.o(.bss)
    client_array_queue                       0xc0266334   Data         112  serialqueue.o(.bss)
    serial_use_memory                        0xc02668d0   Data          16  serialutility.o(.bss)
    serial_server_queue_total                0xc02668e0   Data          16  serialutility.o(.bss)
    serial_client                            0xc02668f0   Data          96  serialclient.o(.bss)
    recv_total_data                          0xc0266950   Data          16  serialserver.o(.bss)
    serial_server                            0xc0266960   Data          32  serialserverudp.o(.bss)
    udp_serv_recv                            0xc0266980   Data          16  serialserverudp.o(.bss)
    recieved_package                         0xc0600000   Data       868360  main.o(.ARM.__AT_0xC0600000)
    ram_heap                                 0xc06d4008   Data       4194329  mem.o(.bss)
    __heap_base                              0xc0ad4028   Data           0  startup_stm32f429x.o(HEAP)
    __heap_limit                             0xc0fd4028   Data           0  startup_stm32f429x.o(HEAP)



==============================================================================

Memory Map of the image

  Image Entry point : 0x0800c1ad

  Load Region LR_IROM1 (Base: 0x0800c000, Size: 0x001ad438, Max: 0x000d4000, ABSOLUTE, COMPRESSED[0x00094d0c])

    Execution Region ER_IROM1 (Base: 0x0800c000, Size: 0x00045868, Max: 0x000d4000, ABSOLUTE)

    Base Addr    Size         Type   Attr      Idx    E Section Name        Object

    0x0800c000   0x000001ac   Data   RO            3    RESET               startup_stm32f429x.o
    0x0800c1ac   0x00000000   Code   RO         3676  * .ARM.Collect$$$$00000000  mc_w.l(entry.o)
    0x0800c1ac   0x00000004   Code   RO         4083    .ARM.Collect$$$$00000001  mc_w.l(entry2.o)
    0x0800c1b0   0x00000004   Code   RO         4086    .ARM.Collect$$$$00000004  mc_w.l(entry5.o)
    0x0800c1b4   0x00000000   Code   RO         4088    .ARM.Collect$$$$00000008  mc_w.l(entry7b.o)
    0x0800c1b4   0x00000000   Code   RO         4090    .ARM.Collect$$$$0000000A  mc_w.l(entry8b.o)
    0x0800c1b4   0x00000008   Code   RO         4091    .ARM.Collect$$$$0000000B  mc_w.l(entry9a.o)
    0x0800c1bc   0x00000000   Code   RO         4093    .ARM.Collect$$$$0000000D  mc_w.l(entry10a.o)
    0x0800c1bc   0x00000000   Code   RO         4095    .ARM.Collect$$$$0000000F  mc_w.l(entry11a.o)
    0x0800c1bc   0x00000004   Code   RO         4084    .ARM.Collect$$$$00002712  mc_w.l(entry2.o)
    0x0800c1c0   0x00000024   Code   RO            4    .text               startup_stm32f429x.o
    0x0800c1e4   0x000003b8   Code   RO           12    .text               system_stm32f4xx.o
    0x0800c59c   0x00000448   Code   RO           61    .text               main.o
    0x0800c9e4   0x00000f40   Code   RO          337    .text               veth_com_usart.o
    0x0800d924   0x00000294   Code   RO          380    .text               veth_eth_ap.o
    0x0800dbb8   0x00000e38   Code   RO          432    .text               veth_hal_init.o
    0x0800e9f0   0x000009ac   Code   RO          461    .text               veth_invariate.o
    0x0800f39c   0x00000648   Code   RO          490    .text               veth_m_4pse.o
    0x0800f9e4   0x00001d2c   Code   RO          514    .text               veth_marvell_6097f.o
    0x08011710   0x00000088   Code   RO          566    .text               veth_system_clock.o
    0x08011798   0x00000108   Code   RO          646    .text               stm32f4xx_it.o
    0x080118a0   0x00000230   Code   RO          670    .text               veth_rstp.o
    0x08011ad0   0x000000d2   Code   RO          704    .text               veth_ntoh.o
    0x08011ba2   0x00000002   PAD
    0x08011ba4   0x000028d4   Code   RO          718    .text               veth_serial.o
    0x08014478   0x00000162   Code   RO          754    .text               fifo.o
    0x080145da   0x00000002   PAD
    0x080145dc   0x00000114   Code   RO          768    .text               edge.o
    0x080146f0   0x0000019c   Code   RO          800    .text               migrate.o
    0x0801488c   0x000000d0   Code   RO          825    .text               p2p.o
    0x0801495c   0x00000184   Code   RO          850    .text               pcost.o
    0x08014ae0   0x000003fc   Code   RO          875    .text               port.o
    0x08014edc   0x0000056c   Code   RO          922    .text               portinfo.o
    0x08015448   0x00000448   Code   RO          947    .text               rolesel.o
    0x08015890   0x000005de   Code   RO          972    .text               roletrns.o
    0x08015e6e   0x00000002   PAD
    0x08015e70   0x000000e4   Code   RO          997    .text               statmch.o
    0x08015f54   0x00000c00   Code   RO         1017    .text               stp_in.o
    0x08016b54   0x00000130   Code   RO         1044    .text               stp_to.o
    0x08016c84   0x00000464   Code   RO         1091    .text               stpm.o
    0x080170e8   0x0000010c   Code   RO         1113    .text               sttrans.o
    0x080171f4   0x0000011c   Code   RO         1138    .text               times.o
    0x08017310   0x00000278   Code   RO         1158    .text               topoch.o
    0x08017588   0x000003bc   Code   RO         1183    .text               transmit.o
    0x08017944   0x00000170   Code   RO         1209    .text               vector.o
    0x08017ab4   0x00000064   Code   RO         1229    .text               veth_netupgrade.o
    0x08017b18   0x00000786   Code   RO         1258    .text               veth_mac.o
    0x0801829e   0x00000002   PAD
    0x080182a0   0x00000db8   Code   RO         1286    .text               veth_port.o
    0x08019058   0x0000020c   Code   RO         1313    .text               veth_vlan.o
    0x08019264   0x000002a0   Code   RO         1333    .text               veth_com.o
    0x08019504   0x00000154   Code   RO         1356    .text               stm32f4xx_hal.o
    0x08019658   0x000002ac   Code   RO         1392    .text               stm32f4xx_hal_cortex.o
    0x08019904   0x00007b90   Code   RO         1416    .text               stm32f4xx_hal_dma.o
    0x08021494   0x00000254   Code   RO         1436    .text               stm32f4xx_hal_dma_ex.o
    0x080216e8   0x00000cd0   Code   RO         1476    .text               stm32f4xx_hal_eth.o
    0x080223b8   0x00000480   Code   RO         1496    .text               stm32f4xx_hal_flash.o
    0x08022838   0x000005fc   Code   RO         1519    .text               stm32f4xx_hal_flash_ex.o
    0x08022e34   0x00000388   Code   RO         1540    .text               stm32f4xx_hal_gpio.o
    0x080231bc   0x0000243c   Code   RO         1560    .text               stm32f4xx_hal_i2c.o
    0x080255f8   0x00000554   Code   RO         1600    .text               stm32f4xx_hal_nor.o
    0x08025b4c   0x00000a24   Code   RO         1660    .text               stm32f4xx_hal_rcc.o
    0x08026570   0x00000434   Code   RO         1707    .text               stm32f4xx_hal_sdram.o
    0x080269a4   0x00002650   Code   RO         1727    .text               stm32f4xx_hal_tim.o
    0x08028ff4   0x00000d58   Code   RO         1747    .text               stm32f4xx_hal_tim_ex.o
    0x08029d4c   0x000011f0   Code   RO         1767    .text               stm32f4xx_hal_uart.o
    0x0802af3c   0x000004ec   Code   RO         1803    .text               stm32f4xx_ll_fmc.o
    0x0802b428   0x000000dc   Code   RO         1837    .text               stm32f4xx_hal_iwdg.o
    0x0802b504   0x000004e8   Code   RO         1855    .text               asn1_dec.o
    0x0802b9ec   0x000003d8   Code   RO         1879    .text               asn1_enc.o
    0x0802bdc4   0x000001dc   Code   RO         1897    .text               def.o
    0x0802bfa0   0x000008cc   Code   RO         1921    .text               igmp.o
    0x0802c86c   0x00000028   Code   RO         1986    .text               init.o
    0x0802c894   0x00000b8c   Code   RO         2042    .text               mib_structs.o
    0x0802d420   0x00002670   Code   RO         2061    .text               mib2.o
    0x0802fa90   0x00001564   Code   RO         2094    .text               msg_in.o
    0x08030ff4   0x00000988   Code   RO         2119    .text               msg_out.o
    0x0803197c   0x00000044   Code   RO         2148    .text               stats.o
    0x080319c0   0x0000000c   Code   RO         2173    .text               sys.o
    0x080319cc   0x00001604   Code   RO         2191    .text               tcp.o
    0x08032fd0   0x000019c0   Code   RO         2215    .text               tcp_in.o
    0x08034990   0x00001554   Code   RO         2242    .text               tcp_out.o
    0x08035ee4   0x000002e8   Code   RO         2255    .text               timers.o
    0x080361cc   0x00000730   Code   RO         2275    .text               udp.o
    0x080368fc   0x000010b4   Code   RO         2295    .text               etharp.o
    0x080379b0   0x00000290   Code   RO         2324    .text               ethernetif.o
    0x08037c40   0x000004fc   Code   RO         2354    .text               icmp.o
    0x0803813c   0x000002ac   Code   RO         2366    .text               inet_chksum.o
    0x080383e8   0x0000068c   Code   RO         2381    .text               ip.o
    0x08038a74   0x0000031c   Code   RO         2402    .text               ip_addr.o
    0x08038d90   0x00000ac8   Code   RO         2425    .text               ip_frag.o
    0x08039858   0x00000748   Code   RO         2439    .text               mem.o
    0x08039fa0   0x000001f0   Code   RO         2455    .text               memp.o
    0x0803a190   0x000003f8   Code   RO         2480    .text               netif.o
    0x0803a588   0x00001014   Code   RO         2512    .text               pbuf.o
    0x0803b59c   0x00000244   Code   RO         2524    .text               raw.o
    0x0803b7e0   0x000004f4   Code   RO         2540    .text               board_info.o
    0x0803bcd4   0x00000180   Code   RO         2572    .text               fs.o
    0x0803be54   0x00000ad8   Code   RO         2636    .text               web_main.o
    0x0803c92c   0x00000328   Code   RO         2723    .text               ip_config.o
    0x0803cc54   0x0000002c   Code   RO         2749    .text               crc16.o
    0x0803cc80   0x00001c48   Code   RO         2766    .text               httpd.o
    0x0803e8c8   0x00000afc   Code   RO         2803    .text               httpd-cgi.o
    0x0803f3c4   0x000011ec   Code   RO         2849    .text               ports.o
    0x080405b0   0x000001b8   Code   RO         2881    .text               request.o
    0x08040768   0x0000008c   Code   RO         2897    .text               timer.o
    0x080407f4   0x0000053c   Code   RO         2920    .text               system_maintain.o
    0x08040d30   0x000000e4   Code   RO         2971    .text               gbk_conv_hanzi.o
    0x08040e14   0x00000514   Code   RO         2989    .text               system_info.o
    0x08041328   0x00000554   Code   RO         3019    .text               mac_link.o
    0x0804187c   0x00000314   Code   RO         3051    .text               mac_table.o
    0x08041b90   0x00000a40   Code   RO         3076    .text               mac.o
    0x080425d0   0x000011b4   Code   RO         3100    .text               vlan.o
    0x08043784   0x00000118   Code   RO         3125    .text               vlan_link.o
    0x0804389c   0x00000114   Code   RO         3152    .text               user.o
    0x080439b0   0x00000434   Code   RO         3198    .text               ntp_client.o
    0x08043de4   0x00001c34   Code   RO         3229    .text               cjson.o
    0x08045a18   0x00000e44   Code   RO         3255    .text               jsonutility.o
    0x0804685c   0x00000118   Code   RO         3282    .text               upload_file.o
    0x08046974   0x000000c2   Code   RO         3308    .text               findsubstring.o
    0x08046a36   0x00000002   PAD
    0x08046a38   0x000001d8   Code   RO         3320    .text               stringhashtable.o
    0x08046c10   0x00000016   Code   RO         3338    .text               utility.o
    0x08046c26   0x00000002   PAD
    0x08046c28   0x000000b4   Code   RO         3355    .text               loginfo.o
    0x08046cdc   0x00000514   Code   RO         3382    .text               logutility.o
    0x080471f0   0x00000228   Code   RO         3406    .text               session.o
    0x08047418   0x00000104   Code   RO         3433    .text               serialqueue.o
    0x0804751c   0x00001220   Code   RO         3461    .text               serialutility.o
    0x0804873c   0x0000057c   Code   RO         3500    .text               serialclient.o
    0x08048cb8   0x000001e8   Code   RO         3532    .text               serialclientudp.o
    0x08048ea0   0x00000374   Code   RO         3561    .text               serialserver.o
    0x08049214   0x0000018c   Code   RO         3594    .text               serialserverudp.o
    0x080493a0   0x00000008   Code   RO         3680    .text               mc_w.l(ctype_o.o)
    0x080493a8   0x00000012   Code   RO         3702    .text               mc_w.l(isspace_o.o)
    0x080493ba   0x0000000c   Code   RO         3708    .text               mc_w.l(tolower.o)
    0x080493c6   0x00000002   PAD
    0x080493c8   0x00000024   Code   RO         3710    .text               mc_w.l(rand.o)
    0x080493ec   0x00000084   Code   RO         3713    .text               mc_w.l(localtime.o)
    0x08049470   0x00000024   Code   RO         3717    .text               mc_w.l(memcpya.o)
    0x08049494   0x00000024   Code   RO         3719    .text               mc_w.l(memseta.o)
    0x080494b8   0x00000018   Code   RO         3721    .text               mc_w.l(strcat.o)
    0x080494d0   0x00000024   Code   RO         3723    .text               mc_w.l(strstr.o)
    0x080494f4   0x00000018   Code   RO         3725    .text               mc_w.l(strncpy.o)
    0x0804950c   0x00000014   Code   RO         3727    .text               mc_w.l(strchr.o)
    0x08049520   0x0000000e   Code   RO         3729    .text               mc_w.l(strlen.o)
    0x0804952e   0x0000001c   Code   RO         3731    .text               mc_w.l(strcmp.o)
    0x0804954a   0x0000001a   Code   RO         3733    .text               mc_w.l(memcmp.o)
    0x08049564   0x00000012   Code   RO         3735    .text               mc_w.l(strcpy.o)
    0x08049576   0x0000001e   Code   RO         3737    .text               mc_w.l(strncmp.o)
    0x08049594   0x00000044   Code   RO         3739    .text               mc_w.l(strtok.o)
    0x080495d8   0x00000020   Code   RO         3745    .text               mc_w.l(strrchr.o)
    0x080495f8   0x0000001c   Code   RO         4038    .text               mc_w.l(calloc.o)
    0x08049614   0x0000001a   Code   RO         4040    .text               mc_w.l(atoi.o)
    0x0804962e   0x0000014e   Code   RO         4042    .text               mf_w.l(dadd.o)
    0x0804977c   0x000000e4   Code   RO         4044    .text               mf_w.l(dmul.o)
    0x08049860   0x000000de   Code   RO         4046    .text               mf_w.l(ddiv.o)
    0x0804993e   0x00000022   Code   RO         4048    .text               mf_w.l(dflti.o)
    0x08049960   0x0000001a   Code   RO         4050    .text               mf_w.l(dfltui.o)
    0x0804997a   0x00000018   Code   RO         4052    .text               mf_w.l(dfltul.o)
    0x08049992   0x0000003e   Code   RO         4054    .text               mf_w.l(dfixi.o)
    0x080499d0   0x00000026   Code   RO         4056    .text               mf_w.l(f2d.o)
    0x080499f6   0x00000002   PAD
    0x080499f8   0x00000028   Code   RO         4058    .text               mf_w.l(cdcmple.o)
    0x08049a20   0x00000028   Code   RO         4060    .text               mf_w.l(cdrcmple.o)
    0x08049a48   0x00000038   Code   RO         4062    .text               mf_w.l(d2f.o)
    0x08049a80   0x0000002c   Code   RO         4098    .text               mc_w.l(uidiv.o)
    0x08049aac   0x00000062   Code   RO         4100    .text               mc_w.l(uldiv.o)
    0x08049b0e   0x0000001e   Code   RO         4102    .text               mc_w.l(llshl.o)
    0x08049b2c   0x00000020   Code   RO         4104    .text               mc_w.l(llushr.o)
    0x08049b4c   0x00000024   Code   RO         4106    .text               mc_w.l(llsshr.o)
    0x08049b70   0x0000009c   Code   RO         4117    .text               mc_w.l(strtod.o)
    0x08049c0c   0x00000070   Code   RO         4119    .text               mc_w.l(strtol.o)
    0x08049c7c   0x00000000   Code   RO         4121    .text               mc_w.l(iusefp.o)
    0x08049c7c   0x0000006c   Code   RO         4122    .text               mf_w.l(fepilogue.o)
    0x08049ce8   0x000000be   Code   RO         4124    .text               mf_w.l(depilogue.o)
    0x08049da6   0x0000002e   Code   RO         4128    .text               mf_w.l(dscalb.o)
    0x08049dd4   0x00000030   Code   RO         4130    .text               mf_w.l(dfixul.o)
    0x08049e04   0x00000024   Code   RO         4132    .text               mc_w.l(init.o)
    0x08049e28   0x0000033c   Code   RO         4136    .text               mc_w.l(scanf_fp.o)
    0x0804a164   0x00000040   Code   RO         4140    .text               mc_w.l(_sgetc.o)
    0x0804a1a4   0x0000009e   Code   RO         4142    .text               mc_w.l(_strtoul.o)
    0x0804a242   0x000000a2   Code   RO         4144    .text               mf_w.l(dsqrt.o)
    0x0804a2e4   0x0000001c   Code   RO         4149    .text               mc_w.l(_chval.o)
    0x0804a300   0x00000060   Code   RO         4159    .text               mc_w.l(__dclz77c.o)
    0x0804a360   0x0000001c   Code   RO         3981    i.__0fprintf        mc_w.l(printfa.o)
    0x0804a37c   0x00000020   Code   RO         3982    i.__0printf         mc_w.l(printfa.o)
    0x0804a39c   0x00000028   Code   RO         3984    i.__0sprintf        mc_w.l(printfa.o)
    0x0804a3c4   0x00000030   Code   RO         4066    i.__ARM_fpclassify  m_wm.l(fpclassify.o)
    0x0804a3f4   0x00000008   Code   RO         4110    i.__aeabi_errno_addr  mc_w.l(errno.o)
    0x0804a3fc   0x00000004   PAD
    0x0804a400   0x00000038   Code   RO         3644    i.__hardfp_atof     m_wm.l(atof.o)
    0x0804a438   0x00000014   Code   RO         3650    i.__hardfp_fabs     m_wm.l(fabs.o)
    0x0804a44c   0x00000004   PAD
    0x0804a450   0x00000118   Code   RO         3656    i.__hardfp_floor    m_wm.l(floor.o)
    0x0804a568   0x00000c90   Code   RO         3662    i.__hardfp_pow      m_wm.l(pow.o)
    0x0804b1f8   0x000000f8   Code   RO         4068    i.__kernel_poly     m_wm.l(poly.o)
    0x0804b2f0   0x00000020   Code   RO         4064    i.__mathlib_dbl_underflow  m_wm.l(dunder.o)
    0x0804b310   0x0000000c   Code   RO         4111    i.__read_errno      mc_w.l(errno.o)
    0x0804b31c   0x0000000e   Code   RO         4153    i.__scatterload_copy  mc_w.l(handlers.o)
    0x0804b32a   0x00000002   Code   RO         4154    i.__scatterload_null  mc_w.l(handlers.o)
    0x0804b32c   0x0000000e   Code   RO         4155    i.__scatterload_zeroinit  mc_w.l(handlers.o)
    0x0804b33a   0x00000002   PAD
    0x0804b33c   0x0000000c   Code   RO         4112    i.__set_errno       mc_w.l(errno.o)
    0x0804b348   0x0000015c   Code   RO         3989    i._fp_digits        mc_w.l(printfa.o)
    0x0804b4a4   0x0000000e   Code   RO         4138    i._is_digit         mc_w.l(scanf_fp.o)
    0x0804b4b2   0x00000002   PAD
    0x0804b4b4   0x000006f0   Code   RO         3990    i._printf_core      mc_w.l(printfa.o)
    0x0804bba4   0x00000026   Code   RO         3991    i._printf_post_padding  mc_w.l(printfa.o)
    0x0804bbca   0x00000030   Code   RO         3992    i._printf_pre_padding  mc_w.l(printfa.o)
    0x0804bbfa   0x0000000a   Code   RO         3994    i._sputc            mc_w.l(printfa.o)
    0x0804bc04   0x00000020   Code   RO         3652    i.fabs              m_wm.l(fabs.o)
    0x0804bc24   0x00000050   Code   RO         4010    i.free              mc_w.l(malloc.o)
    0x0804bc74   0x0000006c   Code   RO         4011    i.malloc            mc_w.l(malloc.o)
    0x0804bce0   0x0000006e   Code   RO         4073    i.sqrt              m_wm.l(sqrt.o)
    0x0804bd4e   0x00000002   PAD
    0x0804bd50   0x000005a6   Data   RO          339    .constdata          veth_com_usart.o
    0x0804c2f6   0x00000002   PAD
    0x0804c2f8   0x00000004   Data   RO         1259    .constdata          veth_mac.o
    0x0804c2fc   0x00000010   Data   RO         1661    .constdata          stm32f4xx_hal_rcc.o
    0x0804c30c   0x00000010   Data   RO         2044    .constdata          mib_structs.o
    0x0804c31c   0x000008fc   Data   RO         2062    .constdata          mib2.o
    0x0804cc18   0x0000000b   Data   RO         2096    .constdata          msg_in.o
    0x0804cc23   0x00000001   PAD
    0x0804cc24   0x0000003c   Data   RO         2150    .constdata          stats.o
    0x0804cc60   0x00000050   Data   RO         2192    .constdata          tcp.o
    0x0804ccb0   0x00000055   Data   RO         2243    .constdata          tcp_out.o
    0x0804cd05   0x00000003   PAD
    0x0804cd08   0x00000050   Data   RO         2297    .constdata          etharp.o
    0x0804cd58   0x00000008   Data   RO         2404    .constdata          ip_addr.o
    0x0804cd60   0x0000003c   Data   RO         2457    .constdata          memp.o
    0x0804cd9c   0x00000042   Data   RO         2638    .constdata          web_main.o
    0x0804cdde   0x00000002   PAD
    0x0804cde0   0x00000041   Data   RO         2724    .constdata          ip_config.o
    0x0804ce21   0x00000003   PAD
    0x0804ce24   0x000001a4   Data   RO         2768    .constdata          httpd.o
    0x0804cfc8   0x00000080   Data   RO         2851    .constdata          ports.o
    0x0804d048   0x00000099   Data   RO         2991    .constdata          system_info.o
    0x0804d0e1   0x00000003   PAD
    0x0804d0e4   0x00000047   Data   RO         3102    .constdata          vlan.o
    0x0804d12b   0x00000007   Data   RO         3230    .constdata          cjson.o
    0x0804d132   0x00000006   PAD
    0x0804d138   0x00000088   Data   RO         3665    .constdata          m_wm.l(pow.o)
    0x0804d1c0   0x00000081   Data   RO         3681    .constdata          mc_w.l(ctype_o.o)
    0x0804d241   0x00000003   PAD
    0x0804d244   0x00000004   Data   RO         3682    .constdata          mc_w.l(ctype_o.o)
    0x0804d248   0x0000000c   Data   RO         3715    .constdata          mc_w.l(localtime.o)
    0x0804d254   0x00000004   PAD
    0x0804d258   0x00000008   Data   RO         4070    .constdata          m_wm.l(qnan.o)
    0x0804d260   0x00003aa8   Data   RO           64    .conststring        main.o
    0x08050d08   0x00000024   Data   RO          769    .conststring        edge.o
    0x08050d2c   0x0000002c   Data   RO          801    .conststring        migrate.o
    0x08050d58   0x00000011   Data   RO          826    .conststring        p2p.o
    0x08050d69   0x0000000b   Data   RO          851    .conststring        pcost.o
    0x08050d74   0x0000003e   Data   RO          923    .conststring        portinfo.o
    0x08050db2   0x0000001b   Data   RO          948    .conststring        rolesel.o
    0x08050dcd   0x000000f8   Data   RO          973    .conststring        roletrns.o
    0x08050ec5   0x00000313   Data   RO         1018    .conststring        stp_in.o
    0x080511d8   0x0000001f   Data   RO         1114    .conststring        sttrans.o
    0x080511f7   0x00000044   Data   RO         1159    .conststring        topoch.o
    0x0805123b   0x00000050   Data   RO         1184    .conststring        transmit.o
    0x0805128b   0x000000a1   Data   RO         2151    .conststring        stats.o
    0x0805132c   0x00000061   Data   RO         2193    .conststring        tcp.o
    0x0805138d   0x000003f8   Data   RO         2769    .conststring        httpd.o
    0x08051785   0x00000073   Data   RO         2852    .conststring        ports.o
    0x080517f8   0x00000030   Data   RO         2992    .conststring        system_info.o
    0x08051828   0x00000040   Data   RO         4151    Region$$Table       anon$$obj.o


    Execution Region RW_RAM2 (Base: 0x20000000, Size: 0x00010000, Max: 0xffffffff, ABSOLUTE)

    Base Addr    Size         Type   Attr      Idx    E Section Name        Object

    0x20000000   0x00010000   Zero   RW            1    STACK               startup_stm32f429x.o


    Execution Region RW_RAM4 (Base: 0x20010000, Size: 0x00009000, Max: 0x0000c000, ABSOLUTE, COMPRESSED[0x000001b4])

    Base Addr    Size         Type   Attr      Idx    E Section Name        Object

    0x20010000   0x00009000   Data   RW          722    COMDATABUFFER       veth_serial.o


    Execution Region RW_RAM3 (Base: 0xc0000000, Size: 0x00000000, Max: 0x00030000, ABSOLUTE)

    **** No section assigned to this execution region ****


    Execution Region RW_IRAM1 (Base: 0xc0030000, Size: 0x00fa4028, Max: 0x00fc0000, ABSOLUTE, COMPRESSED[0x0004f2f0])

    Base Addr    Size         Type   Attr      Idx    E Section Name        Object

    0xc0030000   0x00000014   Data   RW           13    .data               system_stm32f4xx.o
    0xc0030014   0x00003ac1   Data   RW           65    .data               main.o
    0xc0033ad5   0x00000003   PAD
    0xc0033ad8   0x00003c0e   Data   RW          341    .data               veth_com_usart.o
    0xc00376e6   0x00000002   PAD
    0xc00376e8   0x00000154   Data   RW          434    .data               veth_hal_init.o
    0xc003783c   0x00003ac5   Data   RW          464    .data               veth_invariate.o
    0xc003b301   0x00000001   PAD
    0xc003b302   0x00000018   Data   RW          515    .data               veth_marvell_6097f.o
    0xc003b31a   0x00000002   PAD
    0xc003b31c   0x00000018   Data   RW          672    .data               veth_rstp.o
    0xc003b334   0x00004780   Data   RW          721    .data               veth_serial.o
    0xc003fab4   0x00000010   Data   RW          770    .data               edge.o
    0xc003fac4   0x00000014   Data   RW          802    .data               migrate.o
    0xc003fad8   0x0000000c   Data   RW          827    .data               p2p.o
    0xc003fae4   0x0000000c   Data   RW          852    .data               pcost.o
    0xc003faf0   0x00000024   Data   RW          924    .data               portinfo.o
    0xc003fb14   0x00000008   Data   RW          949    .data               rolesel.o
    0xc003fb1c   0x00000048   Data   RW          974    .data               roletrns.o
    0xc003fb64   0x00000084   Data   RW         1019    .data               stp_in.o
    0xc003fbe8   0x00003ab0   Data   RW         1046    .data               stp_to.o
    0xc0043698   0x00000004   Data   RW         1092    .data               stpm.o
    0xc004369c   0x0000000c   Data   RW         1115    .data               sttrans.o
    0xc00436a8   0x00000020   Data   RW         1160    .data               topoch.o
    0xc00436c8   0x00000058   Data   RW         1185    .data               transmit.o
    0xc0043720   0x0000c800   Data   RW         1230    .data               veth_netupgrade.o
    0xc004ff20   0x00000006   Data   RW         1260    .data               veth_mac.o
    0xc004ff26   0x00000001   Data   RW         1287    .data               veth_port.o
    0xc004ff27   0x00000001   PAD
    0xc004ff28   0x00000004   Data   RW         1357    .data               stm32f4xx_hal.o
    0xc004ff2c   0x00003ac5   Data   RW         1770    .data               stm32f4xx_hal_uart.o
    0xc00539f1   0x00000003   PAD
    0xc00539f4   0x0000000c   Data   RW         1922    .data               igmp.o
    0xc0053a00   0x00000001   Data   RW         2045    .data               mib_structs.o
    0xc0053a01   0x00000003   PAD
    0xc0053a04   0x00003f04   Data   RW         2064    .data               mib2.o
    0xc0057908   0x00000004   Data   RW         2097    .data               msg_in.o
    0xc005790c   0x00000008   Data   RW         2121    .data               msg_out.o
    0xc0057914   0x0000002c   Data   RW         2194    .data               tcp.o
    0xc0057940   0x00000020   Data   RW         2217    .data               tcp_in.o
    0xc0057960   0x0000000c   Data   RW         2256    .data               timers.o
    0xc005796c   0x00000008   Data   RW         2276    .data               udp.o
    0xc0057974   0x00003aad   Data   RW         2299    .data               etharp.o
    0xc005b421   0x00000003   PAD
    0xc005b424   0x00000012   Data   RW         2382    .data               ip.o
    0xc005b436   0x00000002   PAD
    0xc005b438   0x00000006   Data   RW         2426    .data               ip_frag.o
    0xc005b43e   0x00000002   PAD
    0xc005b440   0x0000000c   Data   RW         2441    .data               mem.o
    0xc005b44c   0x00000009   Data   RW         2482    .data               netif.o
    0xc005b455   0x00000003   PAD
    0xc005b458   0x00000004   Data   RW         2525    .data               raw.o
    0xc005b45c   0x00003abc   Data   RW         2543    .data               board_info.o
    0xc005ef18   0x000a2b10   Data   RW         2574    .data               fs.o
    0xc0101a28   0x00017694   Data   RW         2640    .data               web_main.o
    0xc01190bc   0x00000200   Data   RW         2750    .data               crc16.o
    0xc01192bc   0x00003ac4   Data   RW         2770    .data               httpd.o
    0xc011cd80   0x00003acb   Data   RW         2805    .data               httpd-cgi.o
    0xc012084b   0x00000001   PAD
    0xc012084c   0x00003aec   Data   RW         2853    .data               ports.o
    0xc0124338   0x00003ab8   Data   RW         2923    .data               system_maintain.o
    0xc0127df0   0x00003aac   Data   RW         2974    .data               gbk_conv_hanzi.o
    0xc012b89c   0x00003ab8   Data   RW         2993    .data               system_info.o
    0xc012f354   0x00003ab8   Data   RW         3021    .data               mac_link.o
    0xc0132e0c   0x00003ab2   Data   RW         3054    .data               mac_table.o
    0xc01368be   0x00000002   PAD
    0xc01368c0   0x00003ab4   Data   RW         3127    .data               vlan_link.o
    0xc013a374   0x00003abc   Data   RW         3201    .data               ntp_client.o
    0xc013de30   0x0000000c   Data   RW         3231    .data               cjson.o
    0xc013de3c   0x00003ab0   Data   RW         3257    .data               jsonutility.o
    0xc01418ec   0x00003ab0   Data   RW         3284    .data               upload_file.o
    0xc014539c   0x00003ab8   Data   RW         3357    .data               loginfo.o
    0xc0148e54   0x00003ab0   Data   RW         3408    .data               session.o
    0xc014c904   0x00003ab0   Data   RW         3464    .data               serialutility.o
    0xc01503b4   0x00000004   Data   RW         3679    .data               mc_w.l(stderr.o)
    0xc01503b8   0x00000004   Data   RW         3711    .data               mc_w.l(rand.o)
    0xc01503bc   0x00000004   Data   RW         3740    .data               mc_w.l(strtok.o)
    0xc01503c0   0x00000004   Data   RW         4097    .data               mc_w.l(stdout.o)
    0xc01503c4   0x00000004   Data   RW         4108    .data               mc_w.l(mvars.o)
    0xc01503c8   0x00000004   Data   RW         4109    .data               mc_w.l(mvars.o)
    0xc01503cc   0x00000004   Data   RW         4113    .data               mc_w.l(errno.o)
    0xc01503d0   0x0003e800   Data   RW          435    EXTSDRAM            veth_hal_init.o
    0xc018ebd0   0x0000006c   Zero   RW           63    .bss                main.o
    0xc018ec3c   0x00000028   Zero   RW          338    .bss                veth_com_usart.o
    0xc018ec64   0x0000000c   Zero   RW          381    .bss                veth_eth_ap.o
    0xc018ec70   0x00005738   Zero   RW          433    .bss                veth_hal_init.o
    0xc01943a8   0x000000e6   Zero   RW          462    .bss                veth_invariate.o
    0xc019448e   0x0000002a   Zero   RW          671    .bss                veth_rstp.o
    0xc01944b8   0x000964b0   Zero   RW          719    .bss                veth_serial.o
    0xc022a968   0x0000001c   Zero   RW         1497    .bss                stm32f4xx_hal_flash.o
    0xc022a984   0x00000032   Zero   RW         1768    .bss                stm32f4xx_hal_uart.o
    0xc022a9b6   0x00000002   PAD
    0xc022a9b8   0x00000180   Zero   RW         2043    .bss                mib_structs.o
    0xc022ab38   0x00000130   Zero   RW         2095    .bss                msg_in.o
    0xc022ac68   0x00000044   Zero   RW         2120    .bss                msg_out.o
    0xc022acac   0x00000204   Zero   RW         2149    .bss                stats.o
    0xc022aeb0   0x00000014   Zero   RW         2216    .bss                tcp_in.o
    0xc022aec4   0x000000c8   Zero   RW         2296    .bss                etharp.o
    0xc022af8c   0x00000010   Zero   RW         2403    .bss                ip_addr.o
    0xc022af9c   0x0001fa44   Zero   RW         2456    .bss                memp.o
    0xc024a9e0   0x00000068   Zero   RW         2481    .bss                netif.o
    0xc024aa48   0x0000000a   Zero   RW         2541    .bss                board_info.o
    0xc024aa52   0x00000002   PAD
    0xc024aa54   0x00013bb2   Zero   RW         2637    .bss                web_main.o
    0xc025e606   0x00000440   Zero   RW         2767    .bss                httpd.o
    0xc025ea46   0x00000002   PAD
    0xc025ea48   0x00000a50   Zero   RW         2850    .bss                ports.o
    0xc025f498   0x00000024   Zero   RW         2898    .bss                timer.o
    0xc025f4bc   0x000003b2   Zero   RW         2921    .bss                system_maintain.o
    0xc025f86e   0x00000032   Zero   RW         2972    .bss                gbk_conv_hanzi.o
    0xc025f8a0   0x00000224   Zero   RW         2990    .bss                system_info.o
    0xc025fac4   0x00002190   Zero   RW         3052    .bss                mac_table.o
    0xc0261c54   0x00000400   Zero   RW         3077    .bss                mac.o
    0xc0262054   0x00002230   Zero   RW         3101    .bss                vlan.o
    0xc0264284   0x00000020   Zero   RW         3153    .bss                user.o
    0xc02642a4   0x00000030   Zero   RW         3199    .bss                ntp_client.o
    0xc02642d4   0x00000040   Zero   RW         3321    .bss                stringhashtable.o
    0xc0264314   0x00002000   Zero   RW         3383    .bss                logutility.o
    0xc0266314   0x00000090   Zero   RW         3434    .bss                serialqueue.o
    0xc02663a4   0x0000054c   Zero   RW         3462    .bss                serialutility.o
    0xc02668f0   0x00000060   Zero   RW         3501    .bss                serialclient.o
    0xc0266950   0x00000010   Zero   RW         3562    .bss                serialserver.o
    0xc0266960   0x00000030   Zero   RW         3595    .bss                serialserverudp.o
    0xc0266990   0x0000002c   Zero   RW         3714    .bss                mc_w.l(localtime.o)
    0xc02669bc   0x00399644   PAD
    0xc0600000   0x000d4008   Zero   RW           62    .ARM.__AT_0xC0600000  main.o
    0xc06d4008   0x00400019   Zero   RW         2440    .bss                mem.o
    0xc0ad4021   0x00000007   PAD
    0xc0ad4028   0x00500000   Zero   RW            2    HEAP                startup_stm32f429x.o


==============================================================================

Image component sizes


      Code (inc. data)   RO Data    RW Data    ZI Data      Debug   Object Name

      1256          0          0          0          0       7196   asn1_dec.o
       984          0          0          0          0       5241   asn1_enc.o
      1268        178          0      15036         10       3632   board_info.o
      7220        238          7         12          0      23934   cjson.o
        44          4          0        512          0       1122   crc16.o
       476        328          0          0          0       1514   def.o
       276         12         36         16          0       1761   edge.o
      4276        626         80      15021        200      10566   etharp.o
       656        132          0          0          0       2759   ethernetif.o
       354          0          0          0          0       3056   fifo.o
       194          0          0          0          0       1248   findsubstring.o
       384         64          0     666384          0      19212   fs.o
       228         10          0      15020         50       1109   gbk_conv_hanzi.o
      2812        878          0      15051          0       5964   httpd-cgi.o
      7240       1280       1436      15044       1088      24152   httpd.o
      1276        360          0          0          0       2470   icmp.o
      2252        396          0         12          0      21404   igmp.o
       684         90          0          0          0       2769   inet_chksum.o
        40          0          0          0          0      15331   init.o
      1676        190          0         18          0       6568   ip.o
       796         94          8          0         16       9586   ip_addr.o
       808        210         65          0          0       2141   ip_config.o
      2760        486          0          6          0       6400   ip_frag.o
      3652        590          0      15024          0       3742   jsonutility.o
       180          8          0      15032          0       2498   loginfo.o
      1300        218          0          0       8192       4302   logutility.o
      2624        522          0          0       1024       5435   mac.o
      1364        204          0      15032          0       6525   mac_link.o
       788         78          0      15026       8592       2995   mac_table.o
      1096        308      15016      15041     868468     203966   main.o
      1864        482          0         12    4194329       3798   mem.o
       496        122         60          0     129604       2394   memp.o
      9840       1436       2300      16132          0      45681   mib2.o
      2956        206         16          1        384       8735   mib_structs.o
       412         20         44         20          0       1946   migrate.o
      5476        236         11          4        304      12945   msg_in.o
      2440         24          0          8         68       8069   msg_out.o
      1016        118          0          9        104       6920   netif.o
      1076        376          0      15036         48       8972   ntp_client.o
       208         14         17         12          0       1786   p2p.o
      4116       1090          0          0          0       9129   pbuf.o
       388         36         11         12          0       2048   pcost.o
      1020        250          0          0          0       2793   port.o
      1388         48         62         36          0       3750   portinfo.o
      4588        892        243      15084       2640      12068   ports.o
       580        122          0          4          0       3033   raw.o
       440         62          0          0          0       1938   request.o
      1096        106         27          8          0       3922   rolesel.o
      1502         48        248         72          0       3821   roletrns.o
      1404        272          0          0         96       6141   serialclient.o
       488        140          0          0          0       8234   serialclientudp.o
       260         38          0          0        144       2997   serialqueue.o
       884        332          0          0         16       3539   serialserver.o
       396         94          0          0         48       2942   serialserverudp.o
      4640       1086          0      15024       1356      10723   serialutility.o
       552         20          0      15024          0       3903   session.o
        36          8        428          0    5308416        780   startup_stm32f429x.o
       228         64          0          0          0       2139   statmch.o
        68         14        221          0        516       3654   stats.o
       340         30          0          4          0       4444   stm32f4xx_hal.o
       684         22          0          0          0      31554   stm32f4xx_hal_cortex.o
     31632        416          0          0          0      20778   stm32f4xx_hal_dma.o
       596         46          0          0          0       2901   stm32f4xx_hal_dma_ex.o
      3280         52          0          0          0       9751   stm32f4xx_hal_eth.o
      1152         34          0          0         28       4405   stm32f4xx_hal_flash.o
      1532         34          0          0          0       6794   stm32f4xx_hal_flash_ex.o
       904         54          0          0          0       3870   stm32f4xx_hal_gpio.o
      9276        106          0          0          0      21667   stm32f4xx_hal_i2c.o
       220          0          0          0          0       1907   stm32f4xx_hal_iwdg.o
      1364         12          0          0          0       6583   stm32f4xx_hal_nor.o
      2596         86         16          0          0      32053   stm32f4xx_hal_rcc.o
      1076         10          0          0          0       7949   stm32f4xx_hal_sdram.o
      9808        164          0          0          0      30012   stm32f4xx_hal_tim.o
      3416         26          0          0          0      11554   stm32f4xx_hal_tim_ex.o
      4592        114          0      15045         50      13365   stm32f4xx_hal_uart.o
       264         36          0          0          0       3737   stm32f4xx_it.o
      1260          0          0          0          0       8389   stm32f4xx_ll_fmc.o
      3072        142        787        132          0      11559   stp_in.o
       304         20          0      15024          0       5125   stp_to.o
      1124        172          0          4          0       6157   stpm.o
       472         80          0          0         64       3339   stringhashtable.o
       268         14         31         12          0       1714   sttrans.o
        12          6          0          0          0        418   sys.o
      1300        366        201      15032        548       8836   system_info.o
      1340        438          0      15032        946      15958   system_maintain.o
       952        114          0         20          0     271847   system_stm32f4xx.o
      5636       1116        177         44          0      21283   tcp.o
      6592        976          0         32         20      14747   tcp_in.o
      5460       1112         85          0          0       9627   tcp_out.o
       140          6          0          0         36       2031   timer.o
       744        172          0         12          0       2767   timers.o
       284          0          0          0          0       1775   times.o
       632         44         68         32          0       2459   topoch.o
       956         56         80         88          0       4334   transmit.o
      1840        202          0          8          0       6706   udp.o
       280         80          0      15024          0       1318   upload_file.o
       276         92          0          0         32       1644   user.o
        22          0          0          0          0        528   utility.o
       368          0          0          0          0       3203   vector.o
       672         34          0          0          0       1980   veth_com.o
      3904       1268       1446      15374         40      41359   veth_com_usart.o
       660         36          0          0         12      18132   veth_eth_ap.o
      3640        374          0     256340      22328      13910   veth_hal_init.o
      2476        866          0      15045        230       7335   veth_invariate.o
      1608          8          0          0          0       9609   veth_m_4pse.o
      1926        444          4          6          0      10335   veth_mac.o
      7468        192          0         24          0      21744   veth_marvell_6097f.o
       100         18          0      51200          0       1588   veth_netupgrade.o
       210          0          0          0          0       1286   veth_ntoh.o
      3512       2182          0          1          0      10818   veth_port.o
       560         36          0         24         42       3098   veth_rstp.o
     10452        932          0      55168     615600      18589   veth_serial.o
       136          8          0          0          0      98301   veth_system_clock.o
       524         92          0          0          0       2416   veth_vlan.o
      4532       1248         71          0       8752       7196   vlan.o
       280          4          0      15028          0       2893   vlan_link.o
      2776        742         66      95892      80818      29741   web_main.o

    ----------------------------------------------------------------------
    250336      30194      23452    1473460   11255272    1516816   Object Totals
         0          0         64          0          0          0   (incl. Generated)
        12          0         20         28         13          0   (incl. Padding)

    ----------------------------------------------------------------------

      Code (inc. data)   RO Data    RW Data    ZI Data      Debug   Library Member Name

        56         12          0          0          0        132   atof.o
        32          8          0          0          0        124   dunder.o
        52          0          0          0          0        248   fabs.o
       280         28          0          0          0        156   floor.o
        48          0          0          0          0        124   fpclassify.o
       248          0          0          0          0        152   poly.o
      3216        310        136          0          0        216   pow.o
         0          0          8          0          0          0   qnan.o
       110          0          0          0          0        148   sqrt.o
        96          0          0          0          0          0   __dclz77c.o
        28          0          0          0          0         68   _chval.o
        64          0          0          0          0         84   _sgetc.o
       158          0          0          0          0         92   _strtoul.o
        26          0          0          0          0         80   atoi.o
        28          0          0          0          0         76   calloc.o
         8          4        133          0          0         68   ctype_o.o
         0          0          0          0          0          0   entry.o
         0          0          0          0          0          0   entry10a.o
         0          0          0          0          0          0   entry11a.o
         8          4          0          0          0          0   entry2.o
         4          0          0          0          0          0   entry5.o
         0          0          0          0          0          0   entry7b.o
         0          0          0          0          0          0   entry8b.o
         8          4          0          0          0          0   entry9a.o
        32         16          0          4          0        204   errno.o
        30          0          0          0          0          0   handlers.o
        36          8          0          0          0         68   init.o
        18          0          0          0          0         76   isspace_o.o
         0          0          0          0          0          0   iusefp.o
        30          0          0          0          0         68   llshl.o
        36          0          0          0          0         68   llsshr.o
        32          0          0          0          0         68   llushr.o
       132          8         12          0         44         76   localtime.o
       188         20          0          0          0        160   malloc.o
        26          0          0          0          0         80   memcmp.o
        36          0          0          0          0         68   memcpya.o
        36          0          0          0          0        108   memseta.o
         0          0          0          8          0          0   mvars.o
      2320        102          0          0          0        680   printfa.o
        36         10          0          4          0        136   rand.o
       842         12          0          0          0        216   scanf_fp.o
         0          0          0          4          0          0   stderr.o
         0          0          0          4          0          0   stdout.o
        24          0          0          0          0         68   strcat.o
        20          0          0          0          0         68   strchr.o
        28          0          0          0          0         76   strcmp.o
        18          0          0          0          0         68   strcpy.o
        14          0          0          0          0         68   strlen.o
        30          0          0          0          0         80   strncmp.o
        24          0          0          0          0         76   strncpy.o
        32          0          0          0          0         68   strrchr.o
        36          0          0          0          0         80   strstr.o
       156         14          0          0          0        120   strtod.o
        68          6          0          4          0         80   strtok.o
       112          0          0          0          0         88   strtol.o
        12          0          0          0          0         68   tolower.o
        44          0          0          0          0         80   uidiv.o
        98          0          0          0          0         92   uldiv.o
        40          2          0          0          0         68   cdcmple.o
        40          2          0          0          0         68   cdrcmple.o
        56          0          0          0          0         88   d2f.o
       334          0          0          0          0        148   dadd.o
       222          0          0          0          0        100   ddiv.o
       190          0          0          0          0        176   depilogue.o
        62          0          0          0          0         80   dfixi.o
        48          0          0          0          0         68   dfixul.o
        34          0          0          0          0         76   dflti.o
        26          0          0          0          0         76   dfltui.o
        24          0          0          0          0         76   dfltul.o
       228          0          0          0          0         96   dmul.o
        46          0          0          0          0         80   dscalb.o
       162          0          0          0          0        100   dsqrt.o
        38          0          0          0          0         68   f2d.o
       108          0          0          0          0        168   fepilogue.o

    ----------------------------------------------------------------------
     10692        574        296         28    3774064       6560   Library Totals
        18          4          7          0    3774020          0   (incl. Padding)

    ----------------------------------------------------------------------

      Code (inc. data)   RO Data    RW Data    ZI Data      Debug   Library Name

      4042        358        144          0          0       1300   m_wm.l
      4974        208        145         28         44       3724   mc_w.l
      1658          4          0          0          0       1536   mf_w.l

    ----------------------------------------------------------------------
     10692        574        296         28    3774064       6560   Library Totals

    ----------------------------------------------------------------------

==============================================================================


      Code (inc. data)   RO Data    RW Data    ZI Data      Debug   

    261028      30768      23748    1473488   15029336    1493908   Grand Totals
    261028      30768      23748     324772   15029336    1493908   ELF Image Totals (compressed)
    261028      30768      23748     324772          0          0   ROM Totals

==============================================================================

    Total RO  Size (Code + RO Data)               284776 ( 278.10kB)
    Total RW  Size (RW Data + ZI Data)          16502824 (16116.04kB)
    Total ROM Size (Code + RO Data + RW Data)     609548 ( 595.26kB)

==============================================================================

